ARM GAS  /var/folders/lp/91fb3m410_x3145lb4m2f_fh0000gn/T//cc0NhM50.s 			page 1


   1              		.syntax unified
   2              		.cpu cortex-m4
   3              		.eabi_attribute 27, 1
   4              		.eabi_attribute 28, 1
   5              		.fpu fpv4-sp-d16
   6              		.eabi_attribute 20, 1
   7              		.eabi_attribute 21, 1
   8              		.eabi_attribute 23, 3
   9              		.eabi_attribute 24, 1
  10              		.eabi_attribute 25, 1
  11              		.eabi_attribute 26, 1
  12              		.eabi_attribute 30, 4
  13              		.eabi_attribute 34, 1
  14              		.eabi_attribute 18, 4
  15              		.thumb
  16              		.syntax unified
  17              		.file	"ConvReverb.cpp"
  18              		.text
  19              	.Ltext0:
  20              		.cfi_sections	.debug_frame
  21              		.section	.text._ZN6Reverb8setDepthEf,"axG",%progbits,_ZN6Reverb8setDepthEf,comdat
  22              		.align	1
  23              		.weak	_ZN6Reverb8setDepthEf
  24              		.thumb
  25              		.thumb_func
  26              		.type	_ZN6Reverb8setDepthEf, %function
  27              	_ZN6Reverb8setDepthEf:
  28              	.LFB1884:
  29              		.file 1 "src/../include/Reverb.h"
  30              		.loc 1 24 0
  31              		.cfi_startproc
  32              		@ args = 0, pretend = 0, frame = 0
  33              		@ frame_needed = 0, uses_anonymous_args = 0
  34              		@ link register save eliminated.
  35              	.LVL0:
  36              		.loc 1 25 0
  37 0000 80ED030A 		vstr.32	s0, [r0, #12]
  38 0004 7047     		bx	lr
  39              		.cfi_endproc
  40              	.LFE1884:
  41              		.size	_ZN6Reverb8setDepthEf, .-_ZN6Reverb8setDepthEf
  42              		.section	.text._ZN6Reverb9setDryWetEf,"axG",%progbits,_ZN6Reverb9setDryWetEf,comdat
  43              		.align	1
  44              		.weak	_ZN6Reverb9setDryWetEf
  45              		.thumb
  46              		.thumb_func
  47              		.type	_ZN6Reverb9setDryWetEf, %function
  48              	_ZN6Reverb9setDryWetEf:
  49              	.LFB1885:
  50              		.loc 1 28 0
  51              		.cfi_startproc
  52              		@ args = 0, pretend = 0, frame = 0
  53              		@ frame_needed = 0, uses_anonymous_args = 0
  54              		@ link register save eliminated.
  55              	.LVL1:
  56              		.loc 1 29 0
  57 0000 80ED010A 		vstr.32	s0, [r0, #4]
ARM GAS  /var/folders/lp/91fb3m410_x3145lb4m2f_fh0000gn/T//cc0NhM50.s 			page 2


  58 0004 7047     		bx	lr
  59              		.cfi_endproc
  60              	.LFE1885:
  61              		.size	_ZN6Reverb9setDryWetEf, .-_ZN6Reverb9setDryWetEf
  62              		.text
  63              		.align	1
  64              		.global	_ZN10ConvReverbC2E6BufferI13buf_f32pair_tES0_IfES2_
  65              		.thumb
  66              		.thumb_func
  67              		.type	_ZN10ConvReverbC2E6BufferI13buf_f32pair_tES0_IfES2_, %function
  68              	_ZN10ConvReverbC2E6BufferI13buf_f32pair_tES0_IfES2_:
  69              	.LFB2376:
  70              		.file 2 "src/ConvReverb.cpp"
  71              		.loc 2 9 0
  72              		.cfi_startproc
  73              		@ args = 52, pretend = 16, frame = 0
  74              		@ frame_needed = 0, uses_anonymous_args = 0
  75              	.LVL2:
  76 0000 84B0     		sub	sp, sp, #16
  77              		.cfi_def_cfa_offset 16
  78 0002 30B5     		push	{r4, r5, lr}
  79              		.cfi_def_cfa_offset 28
  80              		.cfi_offset 4, -28
  81              		.cfi_offset 5, -24
  82              		.cfi_offset 14, -20
  83              		.loc 2 9 0
  84 0004 0446     		mov	r4, r0
  85              	.LVL3:
  86 0006 04A8     		add	r0, sp, #16
  87              	.LVL4:
  88 0008 80E80E00 		stmia	r0, {r1, r2, r3}
  89              	.LBB125:
  90              		.loc 2 10 0
  91 000c 2546     		mov	r5, r4
  92              	.LBB126:
  93              	.LBB127:
  94              		.loc 1 10 0
  95 000e 0023     		movs	r3, #0
  96 0010 6360     		str	r3, [r4, #4]	@ float
  97 0012 A360     		str	r3, [r4, #8]	@ float
  98 0014 E360     		str	r3, [r4, #12]	@ float
  99              	.LVL5:
 100              	.LBE127:
 101              	.LBE126:
 102              		.loc 2 10 0
 103 0016 0B4B     		ldr	r3, .L4
 104 0018 45F8103B 		str	r3, [r5], #16
 105 001c 0FC8     		ldmia	r0, {r0, r1, r2, r3}
 106 001e 85E80F00 		stmia	r5, {r0, r1, r2, r3}
 107 0022 08AB     		add	r3, sp, #32
 108 0024 0FCB     		ldmia	r3, {r0, r1, r2, r3}
 109 0026 04F12005 		add	r5, r4, #32
 110 002a 85E80F00 		stmia	r5, {r0, r1, r2, r3}
 111 002e 0CAB     		add	r3, sp, #48
 112 0030 0FCB     		ldmia	r3, {r0, r1, r2, r3}
 113 0032 04F13005 		add	r5, r4, #48
 114 0036 85E80F00 		stmia	r5, {r0, r1, r2, r3}
ARM GAS  /var/folders/lp/91fb3m410_x3145lb4m2f_fh0000gn/T//cc0NhM50.s 			page 3


 115              	.LBE125:
 116 003a 2046     		mov	r0, r4
 117 003c BDE83040 		pop	{r4, r5, lr}
 118              		.cfi_restore 14
 119              		.cfi_restore 5
 120              		.cfi_restore 4
 121              		.cfi_def_cfa_offset 16
 122              	.LVL6:
 123 0040 04B0     		add	sp, sp, #16
 124              		.cfi_def_cfa_offset 0
 125 0042 7047     		bx	lr
 126              	.L5:
 127              		.align	2
 128              	.L4:
 129 0044 08000000 		.word	.LANCHOR0+8
 130              		.cfi_endproc
 131              	.LFE2376:
 132              		.size	_ZN10ConvReverbC2E6BufferI13buf_f32pair_tES0_IfES2_, .-_ZN10ConvReverbC2E6BufferI13buf_f32pa
 133              		.global	_ZN10ConvReverbC1E6BufferI13buf_f32pair_tES0_IfES2_
 134              		.thumb_set _ZN10ConvReverbC1E6BufferI13buf_f32pair_tES0_IfES2_,_ZN10ConvReverbC2E6BufferI13buf_f32
 135              		.section	.text._ZNK6BufferI13buf_f32pair_tEixEi,"axG",%progbits,_ZNK6BufferI13buf_f32pair_tEixEi,c
 136              		.align	1
 137              		.weak	_ZNK6BufferI13buf_f32pair_tEixEi
 138              		.thumb
 139              		.thumb_func
 140              		.type	_ZNK6BufferI13buf_f32pair_tEixEi, %function
 141              	_ZNK6BufferI13buf_f32pair_tEixEi:
 142              	.LFB2418:
 143              		.file 3 "src/../include/Buffer.h"
 144              		.loc 3 140 0
 145              		.cfi_startproc
 146              		@ args = 0, pretend = 0, frame = 0
 147              		@ frame_needed = 0, uses_anonymous_args = 0
 148              		@ link register save eliminated.
 149              	.LVL7:
 150              		.loc 3 141 0
 151 0000 4368     		ldr	r3, [r0, #4]
 152 0002 0268     		ldr	r2, [r0]
 153 0004 8068     		ldr	r0, [r0, #8]
 154              	.LVL8:
 155 0006 1944     		add	r1, r1, r3
 156              	.LVL9:
 157 0008 91FBF2F3 		sdiv	r3, r1, r2
 158 000c 02FB1311 		mls	r1, r2, r3, r1
 159              		.loc 3 142 0
 160 0010 00EBC100 		add	r0, r0, r1, lsl #3
 161 0014 7047     		bx	lr
 162              		.cfi_endproc
 163              	.LFE2418:
 164              		.size	_ZNK6BufferI13buf_f32pair_tEixEi, .-_ZNK6BufferI13buf_f32pair_tEixEi
 165              		.section	.text._ZN10simple_fft4impl13rearrangeDataI6BufferI13buf_f32pair_tEEEvRT_j,"axG",%progbits
 166              		.align	1
 167              		.weak	_ZN10simple_fft4impl13rearrangeDataI6BufferI13buf_f32pair_tEEEvRT_j
 168              		.thumb
 169              		.thumb_func
 170              		.type	_ZN10simple_fft4impl13rearrangeDataI6BufferI13buf_f32pair_tEEEvRT_j, %function
 171              	_ZN10simple_fft4impl13rearrangeDataI6BufferI13buf_f32pair_tEEEvRT_j:
ARM GAS  /var/folders/lp/91fb3m410_x3145lb4m2f_fh0000gn/T//cc0NhM50.s 			page 4


 172              	.LFB2469:
 173              		.file 4 "third_party/Simple-FFT/include/simple_fft/fft_impl.hpp"
 174              		.loc 4 118 0
 175              		.cfi_startproc
 176              		@ args = 0, pretend = 0, frame = 0
 177              		@ frame_needed = 0, uses_anonymous_args = 0
 178              	.LVL10:
 179 0000 2DE9F047 		push	{r4, r5, r6, r7, r8, r9, r10, lr}
 180              		.cfi_def_cfa_offset 32
 181              		.cfi_offset 4, -32
 182              		.cfi_offset 5, -28
 183              		.cfi_offset 6, -24
 184              		.cfi_offset 7, -20
 185              		.cfi_offset 8, -16
 186              		.cfi_offset 9, -12
 187              		.cfi_offset 10, -8
 188              		.cfi_offset 14, -4
 189              	.LBB133:
 190              		.loc 4 124 0
 191 0004 0024     		movs	r4, #0
 192              	.LBE133:
 193              		.loc 4 118 0
 194 0006 0746     		mov	r7, r0
 195 0008 8846     		mov	r8, r1
 196              		.loc 4 121 0
 197 000a 2546     		mov	r5, r4
 198              	.LVL11:
 199              	.L12:
 200              	.LBB136:
 201              		.loc 4 124 0 discriminator 1
 202 000c 4445     		cmp	r4, r8
 203 000e 23D0     		beq	.L7
 204              		.loc 4 125 0
 205 0010 A542     		cmp	r5, r4
 206 0012 17D9     		bls	.L9
 207              	.LVL12:
 208              	.LBB134:
 209              	.LBB135:
 210              		.loc 4 92 0
 211 0014 2946     		mov	r1, r5
 212 0016 3846     		mov	r0, r7
 213 0018 FFF7FEFF 		bl	_ZNK6BufferI13buf_f32pair_tEixEi
 214              	.LVL13:
 215              		.loc 4 93 0
 216 001c 2146     		mov	r1, r4
 217              		.loc 4 92 0
 218 001e D0F800A0 		ldr	r10, [r0]	@ float
 219              	.LVL14:
 220 0022 D0F80490 		ldr	r9, [r0, #4]	@ float
 221              	.LVL15:
 222 0026 0646     		mov	r6, r0
 223              		.loc 4 93 0
 224 0028 3846     		mov	r0, r7
 225 002a FFF7FEFF 		bl	_ZNK6BufferI13buf_f32pair_tEixEi
 226              	.LVL16:
 227 002e 03C8     		ldmia	r0, {r0, r1}
 228 0030 86E80300 		stmia	r6, {r0, r1}
ARM GAS  /var/folders/lp/91fb3m410_x3145lb4m2f_fh0000gn/T//cc0NhM50.s 			page 5


 229              		.loc 4 94 0
 230 0034 2146     		mov	r1, r4
 231 0036 3846     		mov	r0, r7
 232 0038 FFF7FEFF 		bl	_ZNK6BufferI13buf_f32pair_tEixEi
 233              	.LVL17:
 234 003c C0F800A0 		str	r10, [r0]	@ float
 235 0040 C0F80490 		str	r9, [r0, #4]	@ float
 236              	.LVL18:
 237              	.L9:
 238              	.LBE135:
 239              	.LBE134:
 240              	.LBE136:
 241              		.loc 4 121 0
 242 0044 4346     		mov	r3, r8
 243              	.LVL19:
 244              	.L11:
 245              	.LBB137:
 246              		.loc 4 133 0
 247 0046 5B08     		lsrs	r3, r3, #1
 248              	.LVL20:
 249 0048 1D42     		tst	r5, r3
 250 004a 02D0     		beq	.L10
 251              		.loc 4 138 0
 252 004c 25EA0305 		bic	r5, r5, r3
 253              	.LVL21:
 254              		.loc 4 133 0
 255 0050 F9E7     		b	.L11
 256              	.L10:
 257              		.loc 4 142 0 discriminator 2
 258 0052 1D43     		orrs	r5, r5, r3
 259              	.LVL22:
 260              		.loc 4 124 0 discriminator 2
 261 0054 0134     		adds	r4, r4, #1
 262              	.LVL23:
 263 0056 D9E7     		b	.L12
 264              	.LVL24:
 265              	.L7:
 266 0058 BDE8F087 		pop	{r4, r5, r6, r7, r8, r9, r10, pc}
 267              	.LBE137:
 268              		.cfi_endproc
 269              	.LFE2469:
 270              		.size	_ZN10simple_fft4impl13rearrangeDataI6BufferI13buf_f32pair_tEEEvRT_j, .-_ZN10simple_fft4impl1
 271              		.global	__aeabi_ui2d
 272              		.global	__aeabi_ddiv
 273              		.global	__aeabi_d2f
 274              		.section	.text._ZN10simple_fft4impl13makeTransformI6BufferI13buf_f32pair_tEEEbRT_jNS0_13FFT_direct
 275              		.align	1
 276              		.weak	_ZN10simple_fft4impl13makeTransformI6BufferI13buf_f32pair_tEEEbRT_jNS0_13FFT_directionERPKc
 277              		.thumb
 278              		.thumb_func
 279              		.type	_ZN10simple_fft4impl13makeTransformI6BufferI13buf_f32pair_tEEEbRT_jNS0_13FFT_directionERPKc,
 280              	_ZN10simple_fft4impl13makeTransformI6BufferI13buf_f32pair_tEEEbRT_jNS0_13FFT_directionERPKc:
 281              	.LFB2470:
 282              		.loc 4 178 0
 283              		.cfi_startproc
 284              		@ args = 0, pretend = 0, frame = 8
 285              		@ frame_needed = 0, uses_anonymous_args = 0
ARM GAS  /var/folders/lp/91fb3m410_x3145lb4m2f_fh0000gn/T//cc0NhM50.s 			page 6


 286              	.LVL25:
 287 0000 2DE9F04F 		push	{r4, r5, r6, r7, r8, r9, r10, fp, lr}
 288              		.cfi_def_cfa_offset 36
 289              		.cfi_offset 4, -36
 290              		.cfi_offset 5, -32
 291              		.cfi_offset 6, -28
 292              		.cfi_offset 7, -24
 293              		.cfi_offset 8, -20
 294              		.cfi_offset 9, -16
 295              		.cfi_offset 10, -12
 296              		.cfi_offset 11, -8
 297              		.cfi_offset 14, -4
 298 0004 2DED0E8B 		vpush.64	{d8, d9, d10, d11, d12, d13, d14}
 299              		.cfi_def_cfa_offset 92
 300              		.cfi_offset 80, -92
 301              		.cfi_offset 81, -88
 302              		.cfi_offset 82, -84
 303              		.cfi_offset 83, -80
 304              		.cfi_offset 84, -76
 305              		.cfi_offset 85, -72
 306              		.cfi_offset 86, -68
 307              		.cfi_offset 87, -64
 308              		.cfi_offset 88, -60
 309              		.cfi_offset 89, -56
 310              		.cfi_offset 90, -52
 311              		.cfi_offset 91, -48
 312              		.cfi_offset 92, -44
 313              		.cfi_offset 93, -40
 314 0008 0546     		mov	r5, r0
 315 000a 83B0     		sub	sp, sp, #12
 316              		.cfi_def_cfa_offset 104
 317              		.loc 4 178 0
 318 000c 8946     		mov	r9, r1
 319              		.loc 4 183 0
 320 000e 4AB1     		cbz	r2, .L23
 321 0010 012A     		cmp	r2, #1
 322 0012 03D1     		bne	.L26
 323              		.loc 4 188 0
 324 0014 69A7     		adr	r7, .L28+36
 325 0016 D7E90067 		ldrd	r6, [r7]
 326 001a 06E0     		b	.L16
 327              	.L26:
 328              	.LVL26:
 329              	.LBB177:
 330              	.LBB178:
 331              		.file 5 "third_party/Simple-FFT/include/simple_fft/error_handling.hpp"
 332              		.loc 5 35 0
 333 001c 604A     		ldr	r2, .L28+8
 334              	.LVL27:
 335 001e 1A60     		str	r2, [r3]
 336              	.LVL28:
 337              	.LBE178:
 338              	.LBE177:
 339              		.loc 4 192 0
 340 0020 0020     		movs	r0, #0
 341              	.LVL29:
 342 0022 B3E0     		b	.L18
ARM GAS  /var/folders/lp/91fb3m410_x3145lb4m2f_fh0000gn/T//cc0NhM50.s 			page 7


 343              	.LVL30:
 344              	.L23:
 345              		.loc 4 185 0
 346 0024 5CA7     		adr	r7, .L28
 347 0026 D7E90067 		ldrd	r6, [r7]
 348              	.L16:
 349              	.LVL31:
 350              	.LBB179:
 351              	.LBB180:
 352              	.LBB181:
 353              	.LBB182:
 354              		.file 6 "../logue-sdk/platform/minilogue-xd/inc/utils/float_math.h"
 355              		.loc 6 509 0
 356 002a 9FED5E8A 		vldr.32	s16, .L28+12
 357 002e DFED5E8A 		vldr.32	s17, .L28+16
 358              		.loc 6 516 0
 359 0032 9FED5E9A 		vldr.32	s18, .L28+20
 360              	.LBE182:
 361              	.LBE181:
 362              	.LBE180:
 363              		.loc 4 206 0
 364 0036 0124     		movs	r4, #1
 365              	.LBB240:
 366              		.loc 4 209 0
 367 0038 F6EE009A 		vmov.f32	s19, #5.0e-1
 368              		.loc 4 211 0
 369 003c B8EE00AA 		vmov.f32	s20, #-2.0e+0
 370              	.LVL32:
 371              	.L19:
 372              	.LBE240:
 373              		.loc 4 206 0 discriminator 1
 374 0040 4C45     		cmp	r4, r9
 375 0042 80F0A280 		bcs	.L24
 376              	.LBB241:
 377              		.loc 4 208 0
 378 0046 2046     		mov	r0, r4
 379 0048 FFF7FEFF 		bl	__aeabi_ui2d
 380              	.LVL33:
 381 004c 0246     		mov	r2, r0
 382 004e 0B46     		mov	r3, r1
 383 0050 3046     		mov	r0, r6
 384 0052 3946     		mov	r1, r7
 385 0054 FFF7FEFF 		bl	__aeabi_ddiv
 386              	.LVL34:
 387 0058 FFF7FEFF 		bl	__aeabi_d2f
 388              	.LVL35:
 389 005c 06EE100A 		vmov	s12, r0
 390              		.loc 4 209 0
 391 0060 26EE297A 		vmul.f32	s14, s12, s19
 392              	.LBB187:
 393              	.LBB183:
 394              		.loc 6 513 0
 395 0064 524A     		ldr	r2, .L28+24
 396              		.loc 6 514 0
 397 0066 5349     		ldr	r1, .L28+28
 398              		.loc 6 506 0
 399 0068 17EE103A 		vmov	r3, s14	@ int
ARM GAS  /var/folders/lp/91fb3m410_x3145lb4m2f_fh0000gn/T//cc0NhM50.s 			page 8


 400 006c 03F00040 		and	r0, r3, #-2147483648
 401              		.loc 6 507 0
 402 0070 23F00043 		bic	r3, r3, #-2147483648
 403 0074 07EE903A 		vmov	s15, r3	@ int
 404              		.loc 6 509 0
 405 0078 67EE277A 		vmul.f32	s15, s14, s15
 406              		.loc 6 513 0
 407 007c 0243     		orrs	r2, r2, r0
 408              		.loc 6 509 0
 409 007e 68EE677A 		vnmul.f32	s15, s16, s15
 410              		.loc 6 514 0
 411 0082 4140     		eors	r1, r1, r0
 412              		.loc 6 509 0
 413 0084 E7EE287A 		vfma.f32	s15, s14, s17
 414              		.loc 6 512 0
 415 0088 4B4B     		ldr	r3, .L28+32
 416              		.loc 6 516 0
 417 008a 07EE101A 		vmov	s14, r1
 418              		.loc 6 510 0
 419 008e 67EEA75A 		vmul.f32	s11, s15, s15
 420              		.loc 6 516 0
 421 0092 06EE902A 		vmov	s13, r2
 422 0096 E5EE876A 		vfma.f32	s13, s11, s14
 423              		.loc 6 512 0
 424 009a 0343     		orrs	r3, r3, r0
 425              	.LBE183:
 426              	.LBE187:
 427              	.LBB188:
 428              	.LBB189:
 429              		.loc 6 513 0
 430 009c 444A     		ldr	r2, .L28+24
 431              		.loc 6 514 0
 432 009e 4549     		ldr	r1, .L28+28
 433              	.LBE189:
 434              	.LBE188:
 435              	.LBB197:
 436              	.LBB184:
 437              		.loc 6 516 0
 438 00a0 07EE103A 		vmov	s14, r3
 439 00a4 A5EEA67A 		vfma.f32	s14, s11, s13
 440              	.LBE184:
 441              	.LBE197:
 442              		.loc 4 207 0
 443 00a8 4FEA4408 		lsl	r8, r4, #1
 444              	.LVL36:
 445              	.LBB198:
 446              		.loc 4 214 0
 447 00ac 4FF0000B 		mov	fp, #0
 448              	.LBE198:
 449              	.LBB229:
 450              	.LBB190:
 451              		.loc 6 506 0
 452 00b0 16EE103A 		vmov	r3, s12	@ int
 453              	.LBE190:
 454              	.LBE229:
 455              	.LBB230:
 456              	.LBB185:
ARM GAS  /var/folders/lp/91fb3m410_x3145lb4m2f_fh0000gn/T//cc0NhM50.s 			page 9


 457              		.loc 6 516 0
 458 00b4 27EE257A 		vmul.f32	s14, s14, s11
 459              	.LBE185:
 460              	.LBE230:
 461              	.LBB231:
 462              	.LBB191:
 463              		.loc 6 506 0
 464 00b8 03F00040 		and	r0, r3, #-2147483648
 465              	.LVL37:
 466              		.loc 6 507 0
 467 00bc 23F00043 		bic	r3, r3, #-2147483648
 468              	.LBE191:
 469              	.LBE231:
 470              	.LBB232:
 471              	.LBB186:
 472              		.loc 6 516 0
 473 00c0 A7EE897A 		vfma.f32	s14, s15, s18
 474              	.LVL38:
 475              	.LBE186:
 476              	.LBE232:
 477              	.LBB233:
 478              	.LBB192:
 479              		.loc 6 513 0
 480 00c4 0243     		orrs	r2, r2, r0
 481              		.loc 6 514 0
 482 00c6 4140     		eors	r1, r1, r0
 483              		.loc 6 507 0
 484 00c8 07EE903A 		vmov	s15, r3	@ int
 485              		.loc 6 509 0
 486 00cc 66EE277A 		vmul.f32	s15, s12, s15
 487              	.LBE192:
 488              	.LBE233:
 489              		.loc 4 211 0
 490 00d0 27EE0ACA 		vmul.f32	s24, s14, s20
 491              	.LBB234:
 492              	.LBB193:
 493              		.loc 6 509 0
 494 00d4 68EE677A 		vnmul.f32	s15, s16, s15
 495              		.loc 6 516 0
 496 00d8 06EE901A 		vmov	s13, r1
 497              		.loc 6 509 0
 498 00dc E6EE287A 		vfma.f32	s15, s12, s17
 499              		.loc 6 512 0
 500 00e0 354B     		ldr	r3, .L28+32
 501              	.LBE193:
 502              	.LBE234:
 503              		.loc 4 211 0
 504 00e2 2CEE07CA 		vmul.f32	s24, s24, s14
 505              	.LVL39:
 506              	.LBB235:
 507              	.LBB194:
 508              		.loc 6 510 0
 509 00e6 67EEA7AA 		vmul.f32	s21, s15, s15
 510              	.LVL40:
 511              		.loc 6 516 0
 512 00ea 07EE102A 		vmov	s14, r2
 513 00ee AAEEA67A 		vfma.f32	s14, s21, s13
ARM GAS  /var/folders/lp/91fb3m410_x3145lb4m2f_fh0000gn/T//cc0NhM50.s 			page 10


 514              		.loc 6 512 0
 515 00f2 0343     		orrs	r3, r3, r0
 516              		.loc 6 516 0
 517 00f4 06EE903A 		vmov	s13, r3
 518 00f8 EAEE876A 		vfma.f32	s13, s21, s14
 519              	.LBE194:
 520              	.LBE235:
 521              		.loc 4 212 0
 522 00fc B7EE00BA 		vmov.f32	s22, #1.0e+0
 523              	.LBB236:
 524              	.LBB195:
 525              		.loc 6 516 0
 526 0100 66EEAAAA 		vmul.f32	s21, s13, s21
 527              	.LVL41:
 528              	.LBE195:
 529              	.LBE236:
 530              		.loc 4 212 0
 531 0104 F0EE4BBA 		vmov.f32	s23, s22
 532              	.LBB237:
 533              	.LBB196:
 534              		.loc 6 516 0
 535 0108 E7EE89AA 		vfma.f32	s21, s15, s18
 536              	.LVL42:
 537              	.L22:
 538              	.LBE196:
 539              	.LBE237:
 540              	.LBB238:
 541              		.loc 4 214 0 discriminator 1
 542 010c 5C45     		cmp	r4, fp
 543 010e 01D1     		bne	.L27
 544              	.LBE238:
 545              	.LBE241:
 546              		.loc 4 206 0
 547 0110 4446     		mov	r4, r8
 548              	.LVL43:
 549 0112 95E7     		b	.L19
 550              	.LVL44:
 551              	.L27:
 552              	.LBB242:
 553              	.LBB239:
 554 0114 DA46     		mov	r10, fp
 555              	.LBB199:
 556              	.LBB200:
 557              	.LBB201:
 558              	.LBB202:
 559              	.LBB203:
 560              	.LBB204:
 561              	.LBB205:
 562              		.loc 6 235 0 discriminator 3
 563 0116 B1EE4BDA 		vneg.f32	s26, s22
 564              	.LBE205:
 565              	.LBE204:
 566              	.LBE203:
 567              		.loc 4 152 0 discriminator 3
 568 011a F1EE6BCA 		vneg.f32	s25, s23
 569              	.L21:
 570              	.LVL45:
ARM GAS  /var/folders/lp/91fb3m410_x3145lb4m2f_fh0000gn/T//cc0NhM50.s 			page 11


 571              	.LBE202:
 572              	.LBE201:
 573              		.loc 4 217 0 discriminator 3
 574 011e CA45     		cmp	r10, r9
 575 0120 2CD2     		bcs	.L20
 576              	.LVL46:
 577              	.LBB220:
 578              	.LBB218:
 579              		.loc 4 151 0 discriminator 2
 580 0122 04EB0A01 		add	r1, r4, r10
 581              	.LVL47:
 582 0126 2846     		mov	r0, r5
 583 0128 FFF7FEFF 		bl	_ZNK6BufferI13buf_f32pair_tEixEi
 584              	.LVL48:
 585              		.loc 4 152 0 discriminator 2
 586 012c 5146     		mov	r1, r10
 587 012e D0ED00DA 		vldr.32	s27, [r0]
 588              	.LVL49:
 589 0132 90ED01EA 		vldr.32	s28, [r0, #4]
 590 0136 0190     		str	r0, [sp, #4]
 591              	.LVL50:
 592 0138 2846     		mov	r0, r5
 593 013a FFF7FEFF 		bl	_ZNK6BufferI13buf_f32pair_tEixEi
 594              	.LVL51:
 595              	.LBB210:
 596              	.LBB208:
 597              	.LBB206:
 598              		.loc 6 235 0 discriminator 2
 599 013e D0ED017A 		vldr.32	s15, [r0, #4]
 600              	.LBE206:
 601              	.LBE208:
 602              	.LBE210:
 603              		.loc 4 152 0 discriminator 2
 604 0142 90ED007A 		vldr.32	s14, [r0]
 605 0146 019B     		ldr	r3, [sp, #4]
 606              	.LBB211:
 607              	.LBB209:
 608              	.LBB207:
 609              		.loc 6 235 0 discriminator 2
 610 0148 EDEE0E7A 		vfma.f32	s15, s26, s28
 611              	.LVL52:
 612              	.LBE207:
 613              	.LBE209:
 614              	.LBE211:
 615              		.loc 4 153 0 discriminator 2
 616 014c 5146     		mov	r1, r10
 617 014e 2846     		mov	r0, r5
 618              	.LVL53:
 619              		.loc 4 152 0 discriminator 2
 620 0150 ACEEAD7A 		vfma.f32	s14, s25, s27
 621              	.LVL54:
 622              	.LBE218:
 623              	.LBE220:
 624              		.loc 4 217 0 discriminator 2
 625 0154 C244     		add	r10, r10, r8
 626              	.LVL55:
 627              	.LBB221:
ARM GAS  /var/folders/lp/91fb3m410_x3145lb4m2f_fh0000gn/T//cc0NhM50.s 			page 12


 628              	.LBB219:
 629              		.loc 4 152 0 discriminator 2
 630 0156 C3ED017A 		vstr.32	s15, [r3, #4]
 631 015a 83ED007A 		vstr.32	s14, [r3]
 632              		.loc 4 153 0 discriminator 2
 633 015e FFF7FEFF 		bl	_ZNK6BufferI13buf_f32pair_tEixEi
 634              	.LVL56:
 635              	.LBB212:
 636              	.LBB213:
 637              	.LBB214:
 638              	.LBB215:
 639              		.loc 6 228 0 discriminator 2
 640 0162 D0ED017A 		vldr.32	s15, [r0, #4]
 641              	.LBE215:
 642              	.LBE214:
 643              		.loc 3 58 0 discriminator 2
 644 0166 90ED007A 		vldr.32	s14, [r0]
 645              	.LBB217:
 646              	.LBB216:
 647              		.loc 6 228 0 discriminator 2
 648 016a EBEE0E7A 		vfma.f32	s15, s22, s28
 649              	.LVL57:
 650              	.LBE216:
 651              	.LBE217:
 652              		.loc 3 58 0 discriminator 2
 653 016e ABEEAD7A 		vfma.f32	s14, s23, s27
 654              	.LVL58:
 655              		.loc 3 59 0 discriminator 2
 656 0172 C0ED017A 		vstr.32	s15, [r0, #4]
 657              	.LVL59:
 658              		.loc 3 58 0 discriminator 2
 659 0176 80ED007A 		vstr.32	s14, [r0]
 660              	.LBE213:
 661              	.LBE212:
 662              	.LBE219:
 663              	.LBE221:
 664              		.loc 4 217 0 discriminator 2
 665 017a D0E7     		b	.L21
 666              	.LVL60:
 667              	.L20:
 668              	.LBE200:
 669              	.LBB222:
 670              	.LBB223:
 671              	.LBB224:
 672              		.loc 6 228 0 discriminator 2
 673 017c ECEE2BBA 		vfma.f32	s23, s24, s23
 674              	.LVL61:
 675              	.LBE224:
 676              	.LBE223:
 677              	.LBE222:
 678              	.LBE199:
 679              		.loc 4 214 0 discriminator 2
 680 0180 0BF1010B 		add	fp, fp, #1
 681              	.LVL62:
 682              	.LBB228:
 683              	.LBB227:
 684              	.LBB226:
ARM GAS  /var/folders/lp/91fb3m410_x3145lb4m2f_fh0000gn/T//cc0NhM50.s 			page 13


 685              	.LBB225:
 686              		.loc 6 228 0 discriminator 2
 687 0184 ABEE2ABA 		vfma.f32	s22, s22, s21
 688              	.LVL63:
 689              	.LBE225:
 690              	.LBE226:
 691              	.LBE227:
 692              	.LBE228:
 693              		.loc 4 214 0 discriminator 2
 694 0188 C0E7     		b	.L22
 695              	.LVL64:
 696              	.L24:
 697              	.LBE239:
 698              	.LBE242:
 699              	.LBE179:
 700              		.loc 4 227 0
 701 018a 0120     		movs	r0, #1
 702              	.LVL65:
 703              	.L18:
 704              		.loc 4 228 0
 705 018c 03B0     		add	sp, sp, #12
 706              		.cfi_def_cfa_offset 92
 707              		@ sp needed
 708 018e BDEC0E8B 		vldm	sp!, {d8-d14}
 709              		.cfi_restore 92
 710              		.cfi_restore 93
 711              		.cfi_restore 90
 712              		.cfi_restore 91
 713              		.cfi_restore 88
 714              		.cfi_restore 89
 715              		.cfi_restore 86
 716              		.cfi_restore 87
 717              		.cfi_restore 84
 718              		.cfi_restore 85
 719              		.cfi_restore 82
 720              		.cfi_restore 83
 721              		.cfi_restore 80
 722              		.cfi_restore 81
 723              		.cfi_def_cfa_offset 36
 724 0192 BDE8F08F 		pop	{r4, r5, r6, r7, r8, r9, r10, fp, pc}
 725              	.LVL66:
 726              	.L29:
 727 0196 00BF     		.align	3
 728              	.L28:
 729 0198 00000060 		.word	1610612736
 730 019c FB2109C0 		.word	-1073143301
 731 01a0 00000000 		.word	.LC0
 732 01a4 7B81CF3E 		.word	1053786491
 733 01a8 83F9A23F 		.word	1067645315
 734 01ac 61D1483F 		.word	1061736801
 735 01b0 9ACE773C 		.word	1014484634
 736 01b4 173253BB 		.word	-1152175593
 737 01b8 D786503E 		.word	1045464791
 738 01bc 00000060 		.word	1610612736
 739 01c0 FB210940 		.word	1074340347
 740              		.cfi_endproc
 741              	.LFE2470:
ARM GAS  /var/folders/lp/91fb3m410_x3145lb4m2f_fh0000gn/T//cc0NhM50.s 			page 14


 742              		.size	_ZN10simple_fft4impl13makeTransformI6BufferI13buf_f32pair_tEEEbRT_jNS0_13FFT_directionERPKc,
 743              		.section	.text._ZN10simple_fft4impl4CFFTI6BufferI13buf_f32pair_tELi1EE11FFT_inplaceERS4_jNS0_13FFT
 744              		.align	1
 745              		.weak	_ZN10simple_fft4impl4CFFTI6BufferI13buf_f32pair_tELi1EE11FFT_inplaceERS4_jNS0_13FFT_directio
 746              		.thumb
 747              		.thumb_func
 748              		.type	_ZN10simple_fft4impl4CFFTI6BufferI13buf_f32pair_tELi1EE11FFT_inplaceERS4_jNS0_13FFT_directio
 749              	_ZN10simple_fft4impl4CFFTI6BufferI13buf_f32pair_tELi1EE11FFT_inplaceERS4_jNS0_13FFT_directionERPKc:
 750              	.LFB2451:
 751              		.loc 4 239 0
 752              		.cfi_startproc
 753              		@ args = 0, pretend = 0, frame = 0
 754              		@ frame_needed = 0, uses_anonymous_args = 0
 755              	.LVL67:
 756 0000 2DE9F041 		push	{r4, r5, r6, r7, r8, lr}
 757              		.cfi_def_cfa_offset 24
 758              		.cfi_offset 4, -24
 759              		.cfi_offset 5, -20
 760              		.cfi_offset 6, -16
 761              		.cfi_offset 7, -12
 762              		.cfi_offset 8, -8
 763              		.cfi_offset 14, -4
 764 0004 0746     		mov	r7, r0
 765              	.LVL68:
 766 0006 2DED028B 		vpush.64	{d8}
 767              		.cfi_def_cfa_offset 32
 768              		.cfi_offset 80, -32
 769              		.cfi_offset 81, -28
 770              		.loc 4 239 0
 771 000a 9046     		mov	r8, r2
 772 000c 1E46     		mov	r6, r3
 773              	.LVL69:
 774              	.LBB259:
 775              	.LBB260:
 776              	.LBB261:
 777              	.LBB262:
 778              		.loc 4 34 0
 779 000e 0D46     		mov	r5, r1
 780 0010 59B3     		cbz	r1, .L31
 781 0012 4C1E     		subs	r4, r1, #1
 782 0014 0C40     		ands	r4, r4, r1
 783 0016 28D1     		bne	.L31
 784              	.LVL70:
 785              	.LBE262:
 786              	.LBE261:
 787              	.LBE260:
 788              	.LBE259:
 789              	.LBB266:
 790              	.LBB267:
 791              		.loc 4 246 0
 792 0018 FFF7FEFF 		bl	_ZN10simple_fft4impl13rearrangeDataI6BufferI13buf_f32pair_tEEEvRT_j
 793              	.LVL71:
 794              		.loc 4 248 0
 795 001c 3346     		mov	r3, r6
 796 001e 4246     		mov	r2, r8
 797 0020 2946     		mov	r1, r5
 798 0022 3846     		mov	r0, r7
ARM GAS  /var/folders/lp/91fb3m410_x3145lb4m2f_fh0000gn/T//cc0NhM50.s 			page 15


 799 0024 FFF7FEFF 		bl	_ZN10simple_fft4impl13makeTransformI6BufferI13buf_f32pair_tEEEbRT_jNS0_13FFT_directionERPKc
 800              	.LVL72:
 801 0028 0646     		mov	r6, r0
 802              	.LVL73:
 803 002a 08B3     		cbz	r0, .L38
 804              		.loc 4 252 0
 805 002c B8F1010F 		cmp	r8, #1
 806 0030 1ED1     		bne	.L38
 807              	.LVL74:
 808              	.LBB268:
 809              	.LBB269:
 810              		.loc 4 50 0
 811 0032 07EE905A 		vmov	s15, r5	@ int
 812 0036 F8EE677A 		vcvt.f32.u32	s15, s15
 813 003a B7EE007A 		vmov.f32	s14, #1.0e+0
 814 003e 87EE278A 		vdiv.f32	s16, s14, s15
 815              	.LVL75:
 816              	.L35:
 817              	.LBB270:
 818              		.loc 4 58 0
 819 0042 A542     		cmp	r5, r4
 820 0044 14DD     		ble	.L38
 821              		.loc 4 60 0
 822 0046 2146     		mov	r1, r4
 823 0048 3846     		mov	r0, r7
 824 004a FFF7FEFF 		bl	_ZNK6BufferI13buf_f32pair_tEixEi
 825              	.LVL76:
 826              		.loc 4 58 0
 827 004e 0134     		adds	r4, r4, #1
 828              	.LVL77:
 829              	.LBB271:
 830              	.LBB272:
 831              	.LBB273:
 832              	.LBB274:
 833              		.loc 6 249 0
 834 0050 D0ED017A 		vldr.32	s15, [r0, #4]
 835              	.LBE274:
 836              	.LBE273:
 837              		.loc 3 52 0
 838 0054 90ED007A 		vldr.32	s14, [r0]
 839              	.LBB276:
 840              	.LBB275:
 841              		.loc 6 249 0
 842 0058 68EE277A 		vmul.f32	s15, s16, s15
 843              	.LVL78:
 844              	.LBE275:
 845              	.LBE276:
 846              		.loc 3 52 0
 847 005c 27EE087A 		vmul.f32	s14, s14, s16
 848              	.LVL79:
 849              		.loc 3 53 0
 850 0060 C0ED017A 		vstr.32	s15, [r0, #4]
 851              	.LVL80:
 852              		.loc 3 52 0
 853 0064 80ED007A 		vstr.32	s14, [r0]
 854 0068 EBE7     		b	.L35
 855              	.LVL81:
ARM GAS  /var/folders/lp/91fb3m410_x3145lb4m2f_fh0000gn/T//cc0NhM50.s 			page 16


 856              	.L31:
 857              	.LBE272:
 858              	.LBE271:
 859              	.LBE270:
 860              	.LBE269:
 861              	.LBE268:
 862              	.LBE267:
 863              	.LBE266:
 864              	.LBB277:
 865              	.LBB265:
 866              	.LBB263:
 867              	.LBB264:
 868              		.loc 5 39 0
 869 006a 044B     		ldr	r3, .L43
 870              	.LVL82:
 871 006c 3360     		str	r3, [r6]
 872              	.LVL83:
 873              	.LBE264:
 874              	.LBE263:
 875              	.LBE265:
 876              	.LBE277:
 877              		.loc 4 243 0
 878 006e 0026     		movs	r6, #0
 879              	.LVL84:
 880              	.L38:
 881              		.loc 4 257 0
 882 0070 BDEC028B 		vldm	sp!, {d8}
 883              		.cfi_restore 80
 884              		.cfi_restore 81
 885              		.cfi_def_cfa_offset 24
 886 0074 3046     		mov	r0, r6
 887 0076 BDE8F081 		pop	{r4, r5, r6, r7, r8, pc}
 888              	.LVL85:
 889              	.L44:
 890 007a 00BF     		.align	2
 891              	.L43:
 892 007c 26000000 		.word	.LC1
 893              		.cfi_endproc
 894              	.LFE2451:
 895              		.size	_ZN10simple_fft4impl4CFFTI6BufferI13buf_f32pair_tELi1EE11FFT_inplaceERS4_jNS0_13FFT_directio
 896              		.text
 897              		.align	1
 898              		.global	_ZN10ConvReverb4tickEPfm
 899              		.thumb
 900              		.thumb_func
 901              		.type	_ZN10ConvReverb4tickEPfm, %function
 902              	_ZN10ConvReverb4tickEPfm:
 903              	.LFB2378:
 904              		.loc 2 12 0
 905              		.cfi_startproc
 906              		@ args = 0, pretend = 0, frame = 8
 907              		@ frame_needed = 0, uses_anonymous_args = 0
 908              	.LVL86:
 909 0048 2DE9F043 		push	{r4, r5, r6, r7, r8, r9, lr}
 910              		.cfi_def_cfa_offset 28
 911              		.cfi_offset 4, -28
 912              		.cfi_offset 5, -24
ARM GAS  /var/folders/lp/91fb3m410_x3145lb4m2f_fh0000gn/T//cc0NhM50.s 			page 17


 913              		.cfi_offset 6, -20
 914              		.cfi_offset 7, -16
 915              		.cfi_offset 8, -12
 916              		.cfi_offset 9, -8
 917              		.cfi_offset 14, -4
 918 004c 2DED028B 		vpush.64	{d8}
 919              		.cfi_def_cfa_offset 36
 920              		.cfi_offset 80, -36
 921              		.cfi_offset 81, -32
 922 0050 0446     		mov	r4, r0
 923 0052 83B0     		sub	sp, sp, #12
 924              		.cfi_def_cfa_offset 48
 925              		.loc 2 12 0
 926 0054 0F46     		mov	r7, r1
 927 0056 1646     		mov	r6, r2
 928 0058 01EB8205 		add	r5, r1, r2, lsl #2
 929              	.LVL87:
 930              	.L49:
 931              	.LBB304:
 932              		.loc 2 14 0 discriminator 3
 933 005c A942     		cmp	r1, r5
 934 005e 0FD0     		beq	.L46
 935              	.LBB305:
 936              	.LBB306:
 937              	.LBB307:
 938              		.loc 3 122 0 discriminator 2
 939 0060 636A     		ldr	r3, [r4, #36]
 940              	.LBE307:
 941              	.LBE306:
 942              	.LBE305:
 943              		.loc 2 15 0 discriminator 2
 944 0062 51F8040B 		ldr	r0, [r1], #4	@ float
 945              	.LVL88:
 946 0066 E26A     		ldr	r2, [r4, #44]
 947              	.LVL89:
 948              	.LBB312:
 949              	.LBB311:
 950              	.LBB310:
 951              	.LBB308:
 952              	.LBB309:
 953              		.loc 3 86 0 discriminator 2
 954 0068 013B     		subs	r3, r3, #1
 955              	.LVL90:
 956 006a 01D5     		bpl	.L47
 957              		.loc 3 87 0
 958 006c 1344     		add	r3, r3, r2
 959              	.LVL91:
 960 006e 02E0     		b	.L48
 961              	.LVL92:
 962              	.L47:
 963              		.loc 3 88 0
 964 0070 9342     		cmp	r3, r2
 965              		.loc 3 89 0
 966 0072 A8BF     		it	ge
 967 0074 9B1A     		subge	r3, r3, r2
 968              	.LVL93:
 969              	.L48:
ARM GAS  /var/folders/lp/91fb3m410_x3145lb4m2f_fh0000gn/T//cc0NhM50.s 			page 18


 970              	.LBE309:
 971              	.LBE308:
 972              		.loc 3 124 0
 973 0076 A26A     		ldr	r2, [r4, #40]
 974 0078 02EB8303 		add	r3, r2, r3, lsl #2
 975 007c 1860     		str	r0, [r3]	@ float
 976              	.LVL94:
 977              	.LBE310:
 978              	.LBE311:
 979              	.LBE312:
 980              		.loc 2 14 0
 981 007e EDE7     		b	.L49
 982              	.LVL95:
 983              	.L46:
 984              	.LBE304:
 985              		.loc 2 18 0
 986 0080 0025     		movs	r5, #0
 987 0082 0195     		str	r5, [sp, #4]
 988              		.loc 2 19 0
 989 0084 04F13009 		add	r9, r4, #48
 990              	.LVL96:
 991              	.LBB313:
 992              	.LBB314:
 993              	.LBB315:
 994              	.LBB316:
 995              	.LBB317:
 996              		.file 7 "third_party/Simple-FFT/include/simple_fft/copy_array.hpp"
 997              		.loc 7 55 0
 998 0088 4FF00008 		mov	r8, #0
 999              	.LVL97:
 1000              	.L51:
 1001              		.loc 7 53 0
 1002 008c AE42     		cmp	r6, r5
 1003 008e 13DD     		ble	.L50
 1004              		.loc 7 55 0
 1005 0090 2946     		mov	r1, r5
 1006 0092 4846     		mov	r0, r9
 1007 0094 FFF7FEFF 		bl	_ZNK6BufferI13buf_f32pair_tEixEi
 1008              	.LVL98:
 1009 0098 636A     		ldr	r3, [r4, #36]
 1010 009a 216A     		ldr	r1, [r4, #32]
 1011 009c 2B44     		add	r3, r3, r5
 1012 009e 93FBF1F2 		sdiv	r2, r3, r1
 1013 00a2 01FB1233 		mls	r3, r1, r2, r3
 1014 00a6 A26A     		ldr	r2, [r4, #40]
 1015 00a8 02EB8302 		add	r2, r2, r3, lsl #2
 1016              		.loc 7 53 0
 1017 00ac 0135     		adds	r5, r5, #1
 1018              	.LVL99:
 1019              		.loc 7 55 0
 1020 00ae 1368     		ldr	r3, [r2]	@ float
 1021              	.LVL100:
 1022 00b0 0360     		str	r3, [r0]	@ float
 1023 00b2 C0F80480 		str	r8, [r0, #4]	@ float
 1024 00b6 E9E7     		b	.L51
 1025              	.L50:
 1026              	.LVL101:
ARM GAS  /var/folders/lp/91fb3m410_x3145lb4m2f_fh0000gn/T//cc0NhM50.s 			page 19


 1027              	.LBE317:
 1028              	.LBE316:
 1029              	.LBE315:
 1030              		.file 8 "third_party/Simple-FFT/include/simple_fft/fft.hpp"
 1031              		.loc 8 123 0
 1032 00b8 01AB     		add	r3, sp, #4
 1033              	.LVL102:
 1034 00ba 0022     		movs	r2, #0
 1035 00bc 3146     		mov	r1, r6
 1036 00be 4846     		mov	r0, r9
 1037 00c0 FFF7FEFF 		bl	_ZN10simple_fft4impl4CFFTI6BufferI13buf_f32pair_tELi1EE11FFT_inplaceERS4_jNS0_13FFT_directionER
 1038              	.LVL103:
 1039              	.LBE314:
 1040              	.LBE313:
 1041              		.loc 2 20 0
 1042 00c4 019B     		ldr	r3, [sp, #4]
 1043 00c6 3BBB     		cbnz	r3, .L45
 1044              	.LVL104:
 1045              	.LBB318:
 1046              	.LBB319:
 1047              		.loc 8 42 0
 1048 00c8 01AB     		add	r3, sp, #4
 1049              	.LVL105:
 1050 00ca 0122     		movs	r2, #1
 1051 00cc 216B     		ldr	r1, [r4, #48]
 1052 00ce 4846     		mov	r0, r9
 1053 00d0 FFF7FEFF 		bl	_ZN10simple_fft4impl4CFFTI6BufferI13buf_f32pair_tELi1EE11FFT_inplaceERS4_jNS0_13FFT_directionER
 1054              	.LVL106:
 1055              	.LBE319:
 1056              	.LBE318:
 1057              		.loc 2 29 0
 1058 00d4 019D     		ldr	r5, [sp, #4]
 1059 00d6 FDB9     		cbnz	r5, .L45
 1060              		.loc 2 36 0
 1061 00d8 94ED018A 		vldr.32	s16, [r4, #4]
 1062 00dc F7EE007A 		vmov.f32	s15, #1.0e+0
 1063 00e0 37EEC88A 		vsub.f32	s16, s15, s16
 1064              	.LVL107:
 1065              	.L54:
 1066              	.LBB320:
 1067              		.loc 2 38 0 discriminator 3
 1068 00e4 B542     		cmp	r5, r6
 1069 00e6 17DA     		bge	.L45
 1070              	.LVL108:
 1071              	.LBB321:
 1072              	.LBB322:
 1073              		.loc 3 141 0
 1074 00e8 95FBF6F8 		sdiv	r8, r5, r6
 1075              	.LBE322:
 1076              	.LBE321:
 1077              		.loc 2 39 0
 1078 00ec 2946     		mov	r1, r5
 1079 00ee 4846     		mov	r0, r9
 1080 00f0 FFF7FEFF 		bl	_ZNK6BufferI13buf_f32pair_tEixEi
 1081              	.LVL109:
 1082              	.LBB325:
 1083              	.LBB323:
ARM GAS  /var/folders/lp/91fb3m410_x3145lb4m2f_fh0000gn/T//cc0NhM50.s 			page 20


 1084              		.loc 3 141 0
 1085 00f4 06FB1858 		mls	r8, r6, r8, r5
 1086              	.LBE323:
 1087              	.LBE325:
 1088              		.loc 2 39 0
 1089 00f8 90ED007A 		vldr.32	s14, [r0]
 1090 00fc D4ED017A 		vldr.32	s15, [r4, #4]
 1091              	.LBB326:
 1092              	.LBB324:
 1093              		.loc 3 141 0
 1094 0100 07EB8808 		add	r8, r7, r8, lsl #2
 1095              	.LVL110:
 1096              	.LBE324:
 1097              	.LBE326:
 1098              		.loc 2 39 0
 1099 0104 67EE877A 		vmul.f32	s15, s15, s14
 1100 0108 98ED007A 		vldr.32	s14, [r8]
 1101 010c E8EE077A 		vfma.f32	s15, s16, s14
 1102              		.loc 2 38 0
 1103 0110 0135     		adds	r5, r5, #1
 1104              	.LVL111:
 1105              		.loc 2 39 0
 1106 0112 C8ED007A 		vstr.32	s15, [r8]
 1107              		.loc 2 38 0
 1108 0116 E5E7     		b	.L54
 1109              	.LVL112:
 1110              	.L45:
 1111              	.LBE320:
 1112              		.loc 2 43 0
 1113 0118 03B0     		add	sp, sp, #12
 1114              		.cfi_def_cfa_offset 36
 1115              		@ sp needed
 1116 011a BDEC028B 		vldm	sp!, {d8}
 1117              		.cfi_restore 80
 1118              		.cfi_restore 81
 1119              		.cfi_def_cfa_offset 28
 1120 011e BDE8F083 		pop	{r4, r5, r6, r7, r8, r9, pc}
 1121              		.cfi_endproc
 1122              	.LFE2378:
 1123              		.size	_ZN10ConvReverb4tickEPfm, .-_ZN10ConvReverb4tickEPfm
 1124              		.section	.text.startup,"ax",%progbits
 1125              		.align	1
 1126              		.thumb
 1127              		.thumb_func
 1128              		.type	_GLOBAL__sub_I__ZN10ConvReverbC2E6BufferI13buf_f32pair_tES0_IfES2_, %function
 1129              	_GLOBAL__sub_I__ZN10ConvReverbC2E6BufferI13buf_f32pair_tES0_IfES2_:
 1130              	.LFB2499:
 1131              		.loc 2 43 0
 1132              		.cfi_startproc
 1133              		@ args = 0, pretend = 0, frame = 0
 1134              		@ frame_needed = 0, uses_anonymous_args = 0
 1135              	.LVL113:
 1136 0000 10B5     		push	{r4, lr}
 1137              		.cfi_def_cfa_offset 8
 1138              		.cfi_offset 4, -8
 1139              		.cfi_offset 14, -4
 1140              	.LBB329:
ARM GAS  /var/folders/lp/91fb3m410_x3145lb4m2f_fh0000gn/T//cc0NhM50.s 			page 21


 1141              	.LBB330:
 1142              		.file 9 "/Users/connorbarker/Documents/logue-projects/logue-sdk/tools/gcc/gcc-arm-none-eabi-5_4-20
 1143              		.loc 9 74 0
 1144 0002 054C     		ldr	r4, .L58
 1145 0004 2046     		mov	r0, r4
 1146 0006 FFF7FEFF 		bl	_ZNSt8ios_base4InitC1Ev
 1147              	.LVL114:
 1148 000a 2046     		mov	r0, r4
 1149 000c 034A     		ldr	r2, .L58+4
 1150 000e 0449     		ldr	r1, .L58+8
 1151              	.LBE330:
 1152              	.LBE329:
 1153              		.loc 2 43 0
 1154 0010 BDE81040 		pop	{r4, lr}
 1155              		.cfi_restore 14
 1156              		.cfi_restore 4
 1157              		.cfi_def_cfa_offset 0
 1158              	.LBB332:
 1159              	.LBB331:
 1160              		.loc 9 74 0
 1161 0014 FFF7FEBF 		b	__aeabi_atexit
 1162              	.LVL115:
 1163              	.L59:
 1164              		.align	2
 1165              	.L58:
 1166 0018 00000000 		.word	.LANCHOR1
 1167 001c 00000000 		.word	__dso_handle
 1168 0020 00000000 		.word	_ZNSt8ios_base4InitD1Ev
 1169              	.LBE331:
 1170              	.LBE332:
 1171              		.cfi_endproc
 1172              	.LFE2499:
 1173              		.size	_GLOBAL__sub_I__ZN10ConvReverbC2E6BufferI13buf_f32pair_tES0_IfES2_, .-_GLOBAL__sub_I__ZN10Co
 1174              		.section	.init_array,"aw",%init_array
 1175              		.align	2
 1176 0000 00000000 		.word	_GLOBAL__sub_I__ZN10ConvReverbC2E6BufferI13buf_f32pair_tES0_IfES2_(target1)
 1177              		.global	_ZTV10ConvReverb
 1178              		.section	.rodata
 1179              		.align	2
 1180              		.set	.LANCHOR0,. + 0
 1181              		.type	_ZTV10ConvReverb, %object
 1182              		.size	_ZTV10ConvReverb, 20
 1183              	_ZTV10ConvReverb:
 1184 0000 00000000 		.word	0
 1185 0004 00000000 		.word	0
 1186 0008 00000000 		.word	_ZN10ConvReverb4tickEPfm
 1187 000c 00000000 		.word	_ZN6Reverb8setDepthEf
 1188 0010 00000000 		.word	_ZN6Reverb9setDryWetEf
 1189              		.section	.rodata.str1.1,"aMS",%progbits,1
 1190              	.LC0:
 1191 0000 57726F6E 		.ascii	"Wrong direction for FFT was specified\000"
 1191      67206469 
 1191      72656374 
 1191      696F6E20 
 1191      666F7220 
 1192              	.LC1:
 1193 0026 556E7375 		.ascii	"Unsupported dimensionality: one of dimensions is no"
ARM GAS  /var/folders/lp/91fb3m410_x3145lb4m2f_fh0000gn/T//cc0NhM50.s 			page 22


 1193      70706F72 
 1193      74656420 
 1193      64696D65 
 1193      6E73696F 
 1194 0059 74206120 		.ascii	"t a power of 2\000"
 1194      706F7765 
 1194      72206F66 
 1194      203200
 1195              		.bss
 1196              		.set	.LANCHOR1,. + 0
 1197              		.type	_ZStL8__ioinit, %object
 1198              		.size	_ZStL8__ioinit, 1
 1199              	_ZStL8__ioinit:
 1200 0000 00       		.space	1
 1201              		.text
 1202              	.Letext0:
 1203              		.file 10 "/Users/connorbarker/Documents/logue-projects/logue-sdk/tools/gcc/gcc-arm-none-eabi-5_4-2
 1204              		.file 11 "/Users/connorbarker/Documents/logue-projects/logue-sdk/tools/gcc/gcc-arm-none-eabi-5_4-2
 1205              		.file 12 "/Users/connorbarker/Documents/logue-projects/logue-sdk/tools/gcc/gcc-arm-none-eabi-5_4-2
 1206              		.file 13 "/Users/connorbarker/Documents/logue-projects/logue-sdk/tools/gcc/gcc-arm-none-eabi-5_4-2
 1207              		.file 14 "/Users/connorbarker/Documents/logue-projects/logue-sdk/tools/gcc/gcc-arm-none-eabi-5_4-2
 1208              		.file 15 "/Users/connorbarker/Documents/logue-projects/logue-sdk/tools/gcc/gcc-arm-none-eabi-5_4-2
 1209              		.file 16 "/Users/connorbarker/Documents/logue-projects/logue-sdk/tools/gcc/gcc-arm-none-eabi-5_4-2
 1210              		.file 17 "/Users/connorbarker/Documents/logue-projects/logue-sdk/tools/gcc/gcc-arm-none-eabi-5_4-2
 1211              		.file 18 "/Users/connorbarker/Documents/logue-projects/logue-sdk/tools/gcc/gcc-arm-none-eabi-5_4-2
 1212              		.file 19 "/Users/connorbarker/Documents/logue-projects/logue-sdk/tools/gcc/gcc-arm-none-eabi-5_4-2
 1213              		.file 20 "/Users/connorbarker/Documents/logue-projects/logue-sdk/tools/gcc/gcc-arm-none-eabi-5_4-2
 1214              		.file 21 "/Users/connorbarker/Documents/logue-projects/logue-sdk/tools/gcc/gcc-arm-none-eabi-5_4-2
 1215              		.file 22 "/Users/connorbarker/Documents/logue-projects/logue-sdk/tools/gcc/gcc-arm-none-eabi-5_4-2
 1216              		.file 23 "/Users/connorbarker/Documents/logue-projects/logue-sdk/tools/gcc/gcc-arm-none-eabi-5_4-2
 1217              		.file 24 "/Users/connorbarker/Documents/logue-projects/logue-sdk/tools/gcc/gcc-arm-none-eabi-5_4-2
 1218              		.file 25 "/Users/connorbarker/Documents/logue-projects/logue-sdk/tools/gcc/gcc-arm-none-eabi-5_4-2
 1219              		.file 26 "/Users/connorbarker/Documents/logue-projects/logue-sdk/tools/gcc/gcc-arm-none-eabi-5_4-2
 1220              		.file 27 "/Users/connorbarker/Documents/logue-projects/logue-sdk/tools/gcc/gcc-arm-none-eabi-5_4-2
 1221              		.file 28 "/Users/connorbarker/Documents/logue-projects/logue-sdk/tools/gcc/gcc-arm-none-eabi-5_4-2
 1222              		.file 29 "/Users/connorbarker/Documents/logue-projects/logue-sdk/tools/gcc/gcc-arm-none-eabi-5_4-2
 1223              		.file 30 "/Users/connorbarker/Documents/logue-projects/logue-sdk/tools/gcc/gcc-arm-none-eabi-5_4-2
 1224              		.file 31 "/Users/connorbarker/Documents/logue-projects/logue-sdk/tools/gcc/gcc-arm-none-eabi-5_4-2
 1225              		.file 32 "/Users/connorbarker/Documents/logue-projects/logue-sdk/tools/gcc/gcc-arm-none-eabi-5_4-2
 1226              		.file 33 "<built-in>"
 1227              		.file 34 "/Users/connorbarker/Documents/logue-projects/logue-sdk/tools/gcc/gcc-arm-none-eabi-5_4-2
 1228              		.file 35 "/Users/connorbarker/Documents/logue-projects/logue-sdk/tools/gcc/gcc-arm-none-eabi-5_4-2
 1229              		.file 36 "/Users/connorbarker/Documents/logue-projects/logue-sdk/tools/gcc/gcc-arm-none-eabi-5_4-2
 1230              		.file 37 "/Users/connorbarker/Documents/logue-projects/logue-sdk/tools/gcc/gcc-arm-none-eabi-5_4-2
 1231              		.file 38 "/Users/connorbarker/Documents/logue-projects/logue-sdk/tools/gcc/gcc-arm-none-eabi-5_4-2
 1232              		.file 39 "/Users/connorbarker/Documents/logue-projects/logue-sdk/tools/gcc/gcc-arm-none-eabi-5_4-2
 1233              		.file 40 "/Users/connorbarker/Documents/logue-projects/logue-sdk/tools/gcc/gcc-arm-none-eabi-5_4-2
 1234              		.file 41 "/Users/connorbarker/Documents/logue-projects/logue-sdk/tools/gcc/gcc-arm-none-eabi-5_4-2
 1235              		.file 42 "third_party/Simple-FFT/include/simple_fft/fft.h"
 1236              		.file 43 "third_party/Simple-FFT/include/simple_fft/fft_settings.h"
 1237              		.file 44 "src/../include/ConvReverb.h"
 1238              		.file 45 "/Users/connorbarker/Documents/logue-projects/logue-sdk/tools/gcc/gcc-arm-none-eabi-5_4-2