ARM GAS  /var/folders/lp/91fb3m410_x3145lb4m2f_fh0000gn/T//ccDMlR3y.s 			page 1


   1              		.syntax unified
   2              		.cpu cortex-m4
   3              		.eabi_attribute 27, 1
   4              		.eabi_attribute 28, 1
   5              		.fpu fpv4-sp-d16
   6              		.eabi_attribute 20, 1
   7              		.eabi_attribute 21, 1
   8              		.eabi_attribute 23, 3
   9              		.eabi_attribute 24, 1
  10              		.eabi_attribute 25, 1
  11              		.eabi_attribute 26, 1
  12              		.eabi_attribute 30, 4
  13              		.eabi_attribute 34, 1
  14              		.eabi_attribute 18, 4
  15              		.thumb
  16              		.syntax unified
  17              		.file	"reverb_fx_main.cpp"
  18              		.text
  19              	.Ltext0:
  20              		.cfi_sections	.debug_frame
  21              		.align	1
  22              		.global	_hook_init
  23              		.thumb
  24              		.thumb_func
  25              		.type	_hook_init, %function
  26              	_hook_init:
  27              	.LFB231:
  28              		.file 1 "reverb_fx_main.cpp"
  29              		.loc 1 10 0
  30              		.cfi_startproc
  31              		@ args = 0, pretend = 0, frame = 0
  32              		@ frame_needed = 0, uses_anonymous_args = 0
  33              	.LVL0:
  34 0000 08B5     		push	{r3, lr}
  35              		.cfi_def_cfa_offset 8
  36              		.cfi_offset 3, -8
  37              		.cfi_offset 14, -4
  38              		.loc 1 11 0
  39 0002 FFF7FEFF 		bl	_Z14generateReverbv
  40              	.LVL1:
  41 0006 014B     		ldr	r3, .L2
  42 0008 1860     		str	r0, [r3]
  43 000a 08BD     		pop	{r3, pc}
  44              	.L3:
  45              		.align	2
  46              	.L2:
  47 000c 00000000 		.word	.LANCHOR0
  48              		.cfi_endproc
  49              	.LFE231:
  50              		.size	_hook_init, .-_hook_init
  51              		.align	1
  52              		.global	_hook_process
  53              		.thumb
  54              		.thumb_func
  55              		.type	_hook_process, %function
  56              	_hook_process:
  57              	.LFB232:
ARM GAS  /var/folders/lp/91fb3m410_x3145lb4m2f_fh0000gn/T//ccDMlR3y.s 			page 2


  58              		.loc 1 15 0
  59              		.cfi_startproc
  60              		@ args = 0, pretend = 0, frame = 0
  61              		@ frame_needed = 0, uses_anonymous_args = 0
  62              		@ link register save eliminated.
  63              	.LVL2:
  64              		.loc 1 16 0
  65 0010 054B     		ldr	r3, .L5
  66 0012 1B68     		ldr	r3, [r3]
  67 0014 1A68     		ldr	r2, [r3]
  68              		.loc 1 15 0
  69 0016 10B4     		push	{r4}
  70              		.cfi_def_cfa_offset 4
  71              		.cfi_offset 4, -4
  72              		.loc 1 16 0
  73 0018 1468     		ldr	r4, [r2]
  74 001a 0A46     		mov	r2, r1
  75 001c 0146     		mov	r1, r0
  76              	.LVL3:
  77 001e 1846     		mov	r0, r3
  78              	.LVL4:
  79 0020 2346     		mov	r3, r4
  80              		.loc 1 17 0
  81 0022 5DF8044B 		ldr	r4, [sp], #4
  82              		.cfi_restore 4
  83              		.cfi_def_cfa_offset 0
  84              		.loc 1 16 0
  85 0026 1847     		bx	r3	@ indirect register sibling call
  86              	.LVL5:
  87              	.L6:
  88              		.align	2
  89              	.L5:
  90 0028 00000000 		.word	.LANCHOR0
  91              		.cfi_endproc
  92              	.LFE232:
  93              		.size	_hook_process, .-_hook_process
  94              		.align	1
  95              		.global	_Z11_hook_paramhm
  96              		.thumb
  97              		.thumb_func
  98              		.type	_Z11_hook_paramhm, %function
  99              	_Z11_hook_paramhm:
 100              	.LFB233:
 101              		.loc 1 19 0
 102              		.cfi_startproc
 103              		@ args = 0, pretend = 0, frame = 0
 104              		@ frame_needed = 0, uses_anonymous_args = 0
 105              		@ link register save eliminated.
 106              	.LVL6:
 107              		.loc 1 19 0
 108 002c 00EE101A 		vmov	s0, r1	@ int
 109              		.loc 1 21 0
 110 0030 30B9     		cbnz	r0, .L8
 111              	.LVL7:
 112              		.loc 1 22 0
 113 0032 0D4B     		ldr	r3, .L12
 114              	.LBB4:
ARM GAS  /var/folders/lp/91fb3m410_x3145lb4m2f_fh0000gn/T//ccDMlR3y.s 			page 3


 115              	.LBB5:
 116              		.file 2 "include/Reverb.h"
 117              		.loc 2 21 0
 118 0034 B8EE400A 		vcvt.f32.u32	s0, s0
 119              	.LVL8:
 120 0038 1B68     		ldr	r3, [r3]
 121 003a 83ED020A 		vstr.32	s0, [r3, #8]
 122 003e 7047     		bx	lr
 123              	.LVL9:
 124              	.L8:
 125              	.LBE5:
 126              	.LBE4:
 127              		.loc 1 25 0
 128 0040 0128     		cmp	r0, #1
 129 0042 06D1     		bne	.L10
 130              		.loc 1 26 0
 131 0044 084B     		ldr	r3, .L12
 132 0046 1868     		ldr	r0, [r3]
 133              	.LVL10:
 134 0048 0368     		ldr	r3, [r0]
 135 004a B8EE400A 		vcvt.f32.u32	s0, s0
 136 004e 5B68     		ldr	r3, [r3, #4]
 137 0050 1847     		bx	r3	@ indirect register sibling call
 138              	.LVL11:
 139              	.L10:
 140              		.loc 1 29 0
 141 0052 0328     		cmp	r0, #3
 142 0054 06D1     		bne	.L7
 143              		.loc 1 30 0
 144 0056 044B     		ldr	r3, .L12
 145 0058 1868     		ldr	r0, [r3]
 146              	.LVL12:
 147 005a 0368     		ldr	r3, [r0]
 148 005c B8EE400A 		vcvt.f32.u32	s0, s0
 149 0060 9B68     		ldr	r3, [r3, #8]
 150 0062 1847     		bx	r3	@ indirect register sibling call
 151              	.LVL13:
 152              	.L7:
 153 0064 7047     		bx	lr
 154              	.L13:
 155 0066 00BF     		.align	2
 156              	.L12:
 157 0068 00000000 		.word	.LANCHOR0
 158              		.cfi_endproc
 159              	.LFE233:
 160              		.size	_Z11_hook_paramhm, .-_Z11_hook_paramhm
 161              		.global	verb
 162              		.bss
 163              		.align	2
 164              		.set	.LANCHOR0,. + 0
 165              		.type	verb, %object
 166              		.size	verb, 4
 167              	verb:
 168 0000 00000000 		.space	4
 169              		.text
 170              	.Letext0:
 171              		.file 3 "/Users/connorbarker/Documents/logue-projects/logue-sdk/tools/gcc/gcc-arm-none-eabi-5_4-20
ARM GAS  /var/folders/lp/91fb3m410_x3145lb4m2f_fh0000gn/T//ccDMlR3y.s 			page 4


 172              		.file 4 "/Users/connorbarker/Documents/logue-projects/logue-sdk/tools/gcc/gcc-arm-none-eabi-5_4-20
 173              		.file 5 "/Users/connorbarker/Documents/logue-projects/logue-sdk/tools/gcc/gcc-arm-none-eabi-5_4-20
 174              		.file 6 "/Users/connorbarker/Documents/logue-projects/logue-sdk/tools/gcc/gcc-arm-none-eabi-5_4-20
 175              		.file 7 "/Users/connorbarker/Documents/logue-projects/logue-sdk/tools/gcc/gcc-arm-none-eabi-5_4-20
 176              		.file 8 "../logue-sdk/platform/minilogue-xd/inc/userrevfx.h"
 177              		.file 9 "../logue-sdk/platform/minilogue-xd/inc/fx_api.h"
 178              		.file 10 "<built-in>"
 179              		.file 11 "../logue-sdk/platform/minilogue-xd/inc/userprg.h"
 180              		.file 12 "reverb_fx_main.h"
 181              		.section	.debug_info,"",%progbits
 182              	.Ldebug_info0:
 183 0000 36060000 		.4byte	0x636
 184 0004 0400     		.2byte	0x4
 185 0006 00000000 		.4byte	.Ldebug_abbrev0
 186 000a 04       		.byte	0x4
 187 000b 01       		.uleb128 0x1
 188 000c BA020000 		.4byte	.LASF92
 189 0010 04       		.byte	0x4
 190 0011 35050000 		.4byte	.LASF93
 191 0015 6A010000 		.4byte	.LASF94
 192 0019 00000000 		.4byte	.Ltext0
 193 001d 6C000000 		.4byte	.Letext0-.Ltext0
 194 0021 00000000 		.4byte	.Ldebug_line0
 195 0025 02       		.uleb128 0x2
 196 0026 04       		.byte	0x4
 197 0027 07       		.byte	0x7
 198 0028 23040000 		.4byte	.LASF0
 199 002c 02       		.uleb128 0x2
 200 002d 04       		.byte	0x4
 201 002e 04       		.byte	0x4
 202 002f 07000000 		.4byte	.LASF1
 203 0033 03       		.uleb128 0x3
 204 0034 73746400 		.ascii	"std\000"
 205 0038 0A       		.byte	0xa
 206 0039 00       		.byte	0
 207 003a 11010000 		.4byte	0x111
 208 003e 04       		.uleb128 0x4
 209 003f 1F000000 		.4byte	.LASF3
 210 0043 04       		.byte	0x4
 211 0044 DA       		.byte	0xda
 212 0045 05       		.uleb128 0x5
 213 0046 04       		.byte	0x4
 214 0047 DA       		.byte	0xda
 215 0048 3E000000 		.4byte	0x3e
 216 004c 06       		.uleb128 0x6
 217 004d 03       		.byte	0x3
 218 004e 30       		.byte	0x30
 219 004f 30020000 		.4byte	0x230
 220 0053 06       		.uleb128 0x6
 221 0054 03       		.byte	0x3
 222 0055 31       		.byte	0x31
 223 0056 46020000 		.4byte	0x246
 224 005a 06       		.uleb128 0x6
 225 005b 03       		.byte	0x3
 226 005c 32       		.byte	0x32
 227 005d 5C020000 		.4byte	0x25c
 228 0061 06       		.uleb128 0x6
ARM GAS  /var/folders/lp/91fb3m410_x3145lb4m2f_fh0000gn/T//ccDMlR3y.s 			page 5


 229 0062 03       		.byte	0x3
 230 0063 33       		.byte	0x33
 231 0064 72020000 		.4byte	0x272
 232 0068 06       		.uleb128 0x6
 233 0069 03       		.byte	0x3
 234 006a 35       		.byte	0x35
 235 006b F6020000 		.4byte	0x2f6
 236 006f 06       		.uleb128 0x6
 237 0070 03       		.byte	0x3
 238 0071 36       		.byte	0x36
 239 0072 0C030000 		.4byte	0x30c
 240 0076 06       		.uleb128 0x6
 241 0077 03       		.byte	0x3
 242 0078 37       		.byte	0x37
 243 0079 22030000 		.4byte	0x322
 244 007d 06       		.uleb128 0x6
 245 007e 03       		.byte	0x3
 246 007f 38       		.byte	0x38
 247 0080 38030000 		.4byte	0x338
 248 0084 06       		.uleb128 0x6
 249 0085 03       		.byte	0x3
 250 0086 3A       		.byte	0x3a
 251 0087 9E020000 		.4byte	0x29e
 252 008b 06       		.uleb128 0x6
 253 008c 03       		.byte	0x3
 254 008d 3B       		.byte	0x3b
 255 008e B4020000 		.4byte	0x2b4
 256 0092 06       		.uleb128 0x6
 257 0093 03       		.byte	0x3
 258 0094 3C       		.byte	0x3c
 259 0095 CA020000 		.4byte	0x2ca
 260 0099 06       		.uleb128 0x6
 261 009a 03       		.byte	0x3
 262 009b 3D       		.byte	0x3d
 263 009c E0020000 		.4byte	0x2e0
 264 00a0 06       		.uleb128 0x6
 265 00a1 03       		.byte	0x3
 266 00a2 3F       		.byte	0x3f
 267 00a3 4E030000 		.4byte	0x34e
 268 00a7 06       		.uleb128 0x6
 269 00a8 03       		.byte	0x3
 270 00a9 40       		.byte	0x40
 271 00aa 88020000 		.4byte	0x288
 272 00ae 06       		.uleb128 0x6
 273 00af 03       		.byte	0x3
 274 00b0 42       		.byte	0x42
 275 00b1 3B020000 		.4byte	0x23b
 276 00b5 06       		.uleb128 0x6
 277 00b6 03       		.byte	0x3
 278 00b7 43       		.byte	0x43
 279 00b8 51020000 		.4byte	0x251
 280 00bc 06       		.uleb128 0x6
 281 00bd 03       		.byte	0x3
 282 00be 44       		.byte	0x44
 283 00bf 67020000 		.4byte	0x267
 284 00c3 06       		.uleb128 0x6
 285 00c4 03       		.byte	0x3
ARM GAS  /var/folders/lp/91fb3m410_x3145lb4m2f_fh0000gn/T//ccDMlR3y.s 			page 6


 286 00c5 45       		.byte	0x45
 287 00c6 7D020000 		.4byte	0x27d
 288 00ca 06       		.uleb128 0x6
 289 00cb 03       		.byte	0x3
 290 00cc 47       		.byte	0x47
 291 00cd 01030000 		.4byte	0x301
 292 00d1 06       		.uleb128 0x6
 293 00d2 03       		.byte	0x3
 294 00d3 48       		.byte	0x48
 295 00d4 17030000 		.4byte	0x317
 296 00d8 06       		.uleb128 0x6
 297 00d9 03       		.byte	0x3
 298 00da 49       		.byte	0x49
 299 00db 2D030000 		.4byte	0x32d
 300 00df 06       		.uleb128 0x6
 301 00e0 03       		.byte	0x3
 302 00e1 4A       		.byte	0x4a
 303 00e2 43030000 		.4byte	0x343
 304 00e6 06       		.uleb128 0x6
 305 00e7 03       		.byte	0x3
 306 00e8 4C       		.byte	0x4c
 307 00e9 A9020000 		.4byte	0x2a9
 308 00ed 06       		.uleb128 0x6
 309 00ee 03       		.byte	0x3
 310 00ef 4D       		.byte	0x4d
 311 00f0 BF020000 		.4byte	0x2bf
 312 00f4 06       		.uleb128 0x6
 313 00f5 03       		.byte	0x3
 314 00f6 4E       		.byte	0x4e
 315 00f7 D5020000 		.4byte	0x2d5
 316 00fb 06       		.uleb128 0x6
 317 00fc 03       		.byte	0x3
 318 00fd 4F       		.byte	0x4f
 319 00fe EB020000 		.4byte	0x2eb
 320 0102 06       		.uleb128 0x6
 321 0103 03       		.byte	0x3
 322 0104 51       		.byte	0x51
 323 0105 59030000 		.4byte	0x359
 324 0109 06       		.uleb128 0x6
 325 010a 03       		.byte	0x3
 326 010b 52       		.byte	0x52
 327 010c 93020000 		.4byte	0x293
 328 0110 00       		.byte	0
 329 0111 07       		.uleb128 0x7
 330 0112 B0020000 		.4byte	.LASF2
 331 0116 04       		.byte	0x4
 332 0117 DD       		.byte	0xdd
 333 0118 2B010000 		.4byte	0x12b
 334 011c 04       		.uleb128 0x4
 335 011d 1F000000 		.4byte	.LASF3
 336 0121 04       		.byte	0x4
 337 0122 DE       		.byte	0xde
 338 0123 05       		.uleb128 0x5
 339 0124 04       		.byte	0x4
 340 0125 DE       		.byte	0xde
 341 0126 1C010000 		.4byte	0x11c
 342 012a 00       		.byte	0
ARM GAS  /var/folders/lp/91fb3m410_x3145lb4m2f_fh0000gn/T//ccDMlR3y.s 			page 7


 343 012b 08       		.uleb128 0x8
 344 012c 91040000 		.4byte	.LASF5
 345 0130 05       		.byte	0x5
 346 0131 1B       		.byte	0x1b
 347 0132 36010000 		.4byte	0x136
 348 0136 02       		.uleb128 0x2
 349 0137 01       		.byte	0x1
 350 0138 06       		.byte	0x6
 351 0139 B3010000 		.4byte	.LASF4
 352 013d 08       		.uleb128 0x8
 353 013e 3A020000 		.4byte	.LASF6
 354 0142 05       		.byte	0x5
 355 0143 1D       		.byte	0x1d
 356 0144 48010000 		.4byte	0x148
 357 0148 02       		.uleb128 0x2
 358 0149 01       		.byte	0x1
 359 014a 08       		.byte	0x8
 360 014b 94020000 		.4byte	.LASF7
 361 014f 08       		.uleb128 0x8
 362 0150 27000000 		.4byte	.LASF8
 363 0154 05       		.byte	0x5
 364 0155 29       		.byte	0x29
 365 0156 5A010000 		.4byte	0x15a
 366 015a 02       		.uleb128 0x2
 367 015b 02       		.byte	0x2
 368 015c 05       		.byte	0x5
 369 015d 85000000 		.4byte	.LASF9
 370 0161 08       		.uleb128 0x8
 371 0162 DC000000 		.4byte	.LASF10
 372 0166 05       		.byte	0x5
 373 0167 2B       		.byte	0x2b
 374 0168 6C010000 		.4byte	0x16c
 375 016c 02       		.uleb128 0x2
 376 016d 02       		.byte	0x2
 377 016e 07       		.byte	0x7
 378 016f A3050000 		.4byte	.LASF11
 379 0173 08       		.uleb128 0x8
 380 0174 C8050000 		.4byte	.LASF12
 381 0178 05       		.byte	0x5
 382 0179 3F       		.byte	0x3f
 383 017a 7E010000 		.4byte	0x17e
 384 017e 02       		.uleb128 0x2
 385 017f 04       		.byte	0x4
 386 0180 05       		.byte	0x5
 387 0181 0A020000 		.4byte	.LASF13
 388 0185 08       		.uleb128 0x8
 389 0186 C4000000 		.4byte	.LASF14
 390 018a 05       		.byte	0x5
 391 018b 41       		.byte	0x41
 392 018c 90010000 		.4byte	0x190
 393 0190 02       		.uleb128 0x2
 394 0191 04       		.byte	0x4
 395 0192 07       		.byte	0x7
 396 0193 39040000 		.4byte	.LASF15
 397 0197 08       		.uleb128 0x8
 398 0198 13020000 		.4byte	.LASF16
 399 019c 05       		.byte	0x5
ARM GAS  /var/folders/lp/91fb3m410_x3145lb4m2f_fh0000gn/T//ccDMlR3y.s 			page 8


 400 019d 59       		.byte	0x59
 401 019e A2010000 		.4byte	0x1a2
 402 01a2 02       		.uleb128 0x2
 403 01a3 08       		.byte	0x8
 404 01a4 05       		.byte	0x5
 405 01a5 FC010000 		.4byte	.LASF17
 406 01a9 08       		.uleb128 0x8
 407 01aa 38000000 		.4byte	.LASF18
 408 01ae 05       		.byte	0x5
 409 01af 5B       		.byte	0x5b
 410 01b0 B4010000 		.4byte	0x1b4
 411 01b4 02       		.uleb128 0x2
 412 01b5 08       		.byte	0x8
 413 01b6 07       		.byte	0x7
 414 01b7 E7030000 		.4byte	.LASF19
 415 01bb 08       		.uleb128 0x8
 416 01bc 43000000 		.4byte	.LASF20
 417 01c0 05       		.byte	0x5
 418 01c1 78       		.byte	0x78
 419 01c2 36010000 		.4byte	0x136
 420 01c6 08       		.uleb128 0x8
 421 01c7 B4000000 		.4byte	.LASF21
 422 01cb 05       		.byte	0x5
 423 01cc 7A       		.byte	0x7a
 424 01cd 48010000 		.4byte	0x148
 425 01d1 08       		.uleb128 0x8
 426 01d2 88050000 		.4byte	.LASF22
 427 01d6 05       		.byte	0x5
 428 01d7 92       		.byte	0x92
 429 01d8 5A010000 		.4byte	0x15a
 430 01dc 08       		.uleb128 0x8
 431 01dd 1D020000 		.4byte	.LASF23
 432 01e1 05       		.byte	0x5
 433 01e2 94       		.byte	0x94
 434 01e3 6C010000 		.4byte	0x16c
 435 01e7 08       		.uleb128 0x8
 436 01e8 6C050000 		.4byte	.LASF24
 437 01ec 05       		.byte	0x5
 438 01ed A8       		.byte	0xa8
 439 01ee 7E010000 		.4byte	0x17e
 440 01f2 08       		.uleb128 0x8
 441 01f3 6B060000 		.4byte	.LASF25
 442 01f7 05       		.byte	0x5
 443 01f8 AA       		.byte	0xaa
 444 01f9 90010000 		.4byte	0x190
 445 01fd 08       		.uleb128 0x8
 446 01fe BF010000 		.4byte	.LASF26
 447 0202 05       		.byte	0x5
 448 0203 BA       		.byte	0xba
 449 0204 A2010000 		.4byte	0x1a2
 450 0208 08       		.uleb128 0x8
 451 0209 83020000 		.4byte	.LASF27
 452 020d 05       		.byte	0x5
 453 020e BC       		.byte	0xbc
 454 020f B4010000 		.4byte	0x1b4
 455 0213 08       		.uleb128 0x8
 456 0214 3F010000 		.4byte	.LASF28
ARM GAS  /var/folders/lp/91fb3m410_x3145lb4m2f_fh0000gn/T//ccDMlR3y.s 			page 9


 457 0218 05       		.byte	0x5
 458 0219 C8       		.byte	0xc8
 459 021a 1E020000 		.4byte	0x21e
 460 021e 09       		.uleb128 0x9
 461 021f 04       		.byte	0x4
 462 0220 05       		.byte	0x5
 463 0221 696E7400 		.ascii	"int\000"
 464 0225 08       		.uleb128 0x8
 465 0226 7C050000 		.4byte	.LASF29
 466 022a 05       		.byte	0x5
 467 022b CA       		.byte	0xca
 468 022c 25000000 		.4byte	0x25
 469 0230 08       		.uleb128 0x8
 470 0231 5D000000 		.4byte	.LASF30
 471 0235 06       		.byte	0x6
 472 0236 14       		.byte	0x14
 473 0237 2B010000 		.4byte	0x12b
 474 023b 08       		.uleb128 0x8
 475 023c EA050000 		.4byte	.LASF31
 476 0240 06       		.byte	0x6
 477 0241 18       		.byte	0x18
 478 0242 3D010000 		.4byte	0x13d
 479 0246 08       		.uleb128 0x8
 480 0247 1C050000 		.4byte	.LASF32
 481 024b 06       		.byte	0x6
 482 024c 20       		.byte	0x20
 483 024d 4F010000 		.4byte	0x14f
 484 0251 08       		.uleb128 0x8
 485 0252 30040000 		.4byte	.LASF33
 486 0256 06       		.byte	0x6
 487 0257 24       		.byte	0x24
 488 0258 61010000 		.4byte	0x161
 489 025c 08       		.uleb128 0x8
 490 025d C1040000 		.4byte	.LASF34
 491 0261 06       		.byte	0x6
 492 0262 2C       		.byte	0x2c
 493 0263 73010000 		.4byte	0x173
 494 0267 08       		.uleb128 0x8
 495 0268 0B040000 		.4byte	.LASF35
 496 026c 06       		.byte	0x6
 497 026d 30       		.byte	0x30
 498 026e 85010000 		.4byte	0x185
 499 0272 08       		.uleb128 0x8
 500 0273 04010000 		.4byte	.LASF36
 501 0277 06       		.byte	0x6
 502 0278 38       		.byte	0x38
 503 0279 97010000 		.4byte	0x197
 504 027d 08       		.uleb128 0x8
 505 027e 7C000000 		.4byte	.LASF37
 506 0282 06       		.byte	0x6
 507 0283 3C       		.byte	0x3c
 508 0284 A9010000 		.4byte	0x1a9
 509 0288 08       		.uleb128 0x8
 510 0289 8F000000 		.4byte	.LASF38
 511 028d 06       		.byte	0x6
 512 028e 43       		.byte	0x43
 513 028f 13020000 		.4byte	0x213
ARM GAS  /var/folders/lp/91fb3m410_x3145lb4m2f_fh0000gn/T//ccDMlR3y.s 			page 10


 514 0293 08       		.uleb128 0x8
 515 0294 52010000 		.4byte	.LASF39
 516 0298 06       		.byte	0x6
 517 0299 48       		.byte	0x48
 518 029a 25020000 		.4byte	0x225
 519 029e 08       		.uleb128 0x8
 520 029f 48050000 		.4byte	.LASF40
 521 02a3 07       		.byte	0x7
 522 02a4 15       		.byte	0x15
 523 02a5 BB010000 		.4byte	0x1bb
 524 02a9 08       		.uleb128 0x8
 525 02aa A5010000 		.4byte	.LASF41
 526 02ae 07       		.byte	0x7
 527 02af 16       		.byte	0x16
 528 02b0 C6010000 		.4byte	0x1c6
 529 02b4 08       		.uleb128 0x8
 530 02b5 5E050000 		.4byte	.LASF42
 531 02b9 07       		.byte	0x7
 532 02ba 1B       		.byte	0x1b
 533 02bb D1010000 		.4byte	0x1d1
 534 02bf 08       		.uleb128 0x8
 535 02c0 E2040000 		.4byte	.LASF43
 536 02c4 07       		.byte	0x7
 537 02c5 1C       		.byte	0x1c
 538 02c6 DC010000 		.4byte	0x1dc
 539 02ca 08       		.uleb128 0x8
 540 02cb A2020000 		.4byte	.LASF44
 541 02cf 07       		.byte	0x7
 542 02d0 21       		.byte	0x21
 543 02d1 E7010000 		.4byte	0x1e7
 544 02d5 08       		.uleb128 0x8
 545 02d6 14040000 		.4byte	.LASF45
 546 02da 07       		.byte	0x7
 547 02db 22       		.byte	0x22
 548 02dc F2010000 		.4byte	0x1f2
 549 02e0 08       		.uleb128 0x8
 550 02e1 5C010000 		.4byte	.LASF46
 551 02e5 07       		.byte	0x7
 552 02e6 27       		.byte	0x27
 553 02e7 FD010000 		.4byte	0x1fd
 554 02eb 08       		.uleb128 0x8
 555 02ec E7000000 		.4byte	.LASF47
 556 02f0 07       		.byte	0x7
 557 02f1 28       		.byte	0x28
 558 02f2 08020000 		.4byte	0x208
 559 02f6 08       		.uleb128 0x8
 560 02f7 2E020000 		.4byte	.LASF48
 561 02fb 07       		.byte	0x7
 562 02fc 33       		.byte	0x33
 563 02fd 1E020000 		.4byte	0x21e
 564 0301 08       		.uleb128 0x8
 565 0302 FE030000 		.4byte	.LASF49
 566 0306 07       		.byte	0x7
 567 0307 34       		.byte	0x34
 568 0308 25000000 		.4byte	0x25
 569 030c 08       		.uleb128 0x8
 570 030d 62040000 		.4byte	.LASF50
ARM GAS  /var/folders/lp/91fb3m410_x3145lb4m2f_fh0000gn/T//ccDMlR3y.s 			page 11


 571 0311 07       		.byte	0x7
 572 0312 3D       		.byte	0x3d
 573 0313 1E020000 		.4byte	0x21e
 574 0317 08       		.uleb128 0x8
 575 0318 F1040000 		.4byte	.LASF51
 576 031c 07       		.byte	0x7
 577 031d 3E       		.byte	0x3e
 578 031e 25000000 		.4byte	0x25
 579 0322 08       		.uleb128 0x8
 580 0323 4B040000 		.4byte	.LASF52
 581 0327 07       		.byte	0x7
 582 0328 47       		.byte	0x47
 583 0329 1E020000 		.4byte	0x21e
 584 032d 08       		.uleb128 0x8
 585 032e B3040000 		.4byte	.LASF53
 586 0332 07       		.byte	0x7
 587 0333 48       		.byte	0x48
 588 0334 25000000 		.4byte	0x25
 589 0338 08       		.uleb128 0x8
 590 0339 98000000 		.4byte	.LASF54
 591 033d 07       		.byte	0x7
 592 033e 51       		.byte	0x51
 593 033f A2010000 		.4byte	0x1a2
 594 0343 08       		.uleb128 0x8
 595 0344 F6000000 		.4byte	.LASF55
 596 0348 07       		.byte	0x7
 597 0349 52       		.byte	0x52
 598 034a B4010000 		.4byte	0x1b4
 599 034e 08       		.uleb128 0x8
 600 034f 60020000 		.4byte	.LASF56
 601 0353 07       		.byte	0x7
 602 0354 82       		.byte	0x82
 603 0355 A2010000 		.4byte	0x1a2
 604 0359 08       		.uleb128 0x8
 605 035a 58040000 		.4byte	.LASF57
 606 035e 07       		.byte	0x7
 607 035f 8B       		.byte	0x8b
 608 0360 B4010000 		.4byte	0x1b4
 609 0364 02       		.uleb128 0x2
 610 0365 08       		.byte	0x8
 611 0366 04       		.byte	0x4
 612 0367 77020000 		.4byte	.LASF58
 613 036b 0A       		.uleb128 0xa
 614 036c 0D000000 		.4byte	.LASF95
 615 0370 02       		.uleb128 0x2
 616 0371 04       		.byte	0x4
 617 0372 07       		.byte	0x7
 618 0373 F2050000 		.4byte	.LASF59
 619 0377 02       		.uleb128 0x2
 620 0378 01       		.byte	0x1
 621 0379 08       		.byte	0x8
 622 037a 9A040000 		.4byte	.LASF60
 623 037e 02       		.uleb128 0x2
 624 037f 08       		.byte	0x8
 625 0380 04       		.byte	0x4
 626 0381 1F060000 		.4byte	.LASF61
 627 0385 0B       		.uleb128 0xb
ARM GAS  /var/folders/lp/91fb3m410_x3145lb4m2f_fh0000gn/T//ccDMlR3y.s 			page 12


 628 0386 01       		.byte	0x1
 629 0387 48010000 		.4byte	0x148
 630 038b 0B       		.byte	0xb
 631 038c 35       		.byte	0x35
 632 038d B6030000 		.4byte	0x3b6
 633 0391 0C       		.uleb128 0xc
 634 0392 D2030000 		.4byte	.LASF62
 635 0396 00       		.byte	0
 636 0397 0C       		.uleb128 0xc
 637 0398 9F040000 		.4byte	.LASF63
 638 039c 01       		.byte	0x1
 639 039d 0C       		.uleb128 0xc
 640 039e 96060000 		.4byte	.LASF64
 641 03a2 02       		.byte	0x2
 642 03a3 0C       		.uleb128 0xc
 643 03a4 12010000 		.4byte	.LASF65
 644 03a8 03       		.byte	0x3
 645 03a9 0C       		.uleb128 0xc
 646 03aa B6050000 		.4byte	.LASF66
 647 03ae 04       		.byte	0x4
 648 03af 0C       		.uleb128 0xc
 649 03b0 26010000 		.4byte	.LASF67
 650 03b4 05       		.byte	0x5
 651 03b5 00       		.byte	0
 652 03b6 0D       		.uleb128 0xd
 653 03b7 01       		.byte	0x1
 654 03b8 48010000 		.4byte	0x148
 655 03bc 08       		.byte	0x8
 656 03bd 43       		.byte	0x43
 657 03be D2050000 		.4byte	.LASF96
 658 03c2 E5030000 		.4byte	0x3e5
 659 03c6 0C       		.uleb128 0xc
 660 03c7 64000000 		.4byte	.LASF68
 661 03cb 00       		.byte	0
 662 03cc 0C       		.uleb128 0xc
 663 03cd C9040000 		.4byte	.LASF69
 664 03d1 01       		.byte	0x1
 665 03d2 0C       		.uleb128 0xc
 666 03d3 FF040000 		.4byte	.LASF70
 667 03d7 02       		.byte	0x2
 668 03d8 0C       		.uleb128 0xc
 669 03d9 3B060000 		.4byte	.LASF71
 670 03dd 03       		.byte	0x3
 671 03de 0C       		.uleb128 0xc
 672 03df 7C060000 		.4byte	.LASF72
 673 03e3 04       		.byte	0x4
 674 03e4 00       		.byte	0
 675 03e5 08       		.uleb128 0x8
 676 03e6 AA060000 		.4byte	.LASF73
 677 03ea 08       		.byte	0x8
 678 03eb 4C       		.byte	0x4c
 679 03ec B6030000 		.4byte	0x3b6
 680 03f0 0E       		.uleb128 0xe
 681 03f1 04       		.byte	0x4
 682 03f2 2C000000 		.4byte	0x2c
 683 03f6 0F       		.uleb128 0xf
 684 03f7 00000000 		.4byte	.LASF97
ARM GAS  /var/folders/lp/91fb3m410_x3145lb4m2f_fh0000gn/T//ccDMlR3y.s 			page 13


 685 03fb 1B040000 		.4byte	0x41b
 686 03ff 10       		.uleb128 0x10
 687 0400 4A010000 		.4byte	.LASF98
 688 0404 02       		.byte	0x2
 689 0405 14       		.byte	0x14
 690 0406 26060000 		.4byte	.LASF99
 691 040a 01       		.byte	0x1
 692 040b 0F040000 		.4byte	0x40f
 693 040f 11       		.uleb128 0x11
 694 0410 1B040000 		.4byte	0x41b
 695 0414 12       		.uleb128 0x12
 696 0415 2C000000 		.4byte	0x2c
 697 0419 00       		.byte	0
 698 041a 00       		.byte	0
 699 041b 0E       		.uleb128 0xe
 700 041c 04       		.byte	0x4
 701 041d F6030000 		.4byte	0x3f6
 702 0421 13       		.uleb128 0x13
 703 0422 FF030000 		.4byte	0x3ff
 704 0426 03       		.byte	0x3
 705 0427 2F040000 		.4byte	0x42f
 706 042b 44040000 		.4byte	0x444
 707 042f 14       		.uleb128 0x14
 708 0430 24050000 		.4byte	.LASF100
 709 0434 44040000 		.4byte	0x444
 710 0438 15       		.uleb128 0x15
 711 0439 76616C00 		.ascii	"val\000"
 712 043d 02       		.byte	0x2
 713 043e 14       		.byte	0x14
 714 043f 2C000000 		.4byte	0x2c
 715 0443 00       		.byte	0
 716 0444 16       		.uleb128 0x16
 717 0445 1B040000 		.4byte	0x41b
 718 0449 17       		.uleb128 0x17
 719 044a 52000000 		.4byte	.LASF75
 720 044e 01       		.byte	0x1
 721 044f 0A       		.byte	0xa
 722 0450 00000000 		.4byte	.LFB231
 723 0454 10000000 		.4byte	.LFE231-.LFB231
 724 0458 01       		.uleb128 0x1
 725 0459 9C       		.byte	0x9c
 726 045a 86040000 		.4byte	0x486
 727 045e 18       		.uleb128 0x18
 728 045f 55050000 		.4byte	.LASF74
 729 0463 01       		.byte	0x1
 730 0464 0A       		.byte	0xa
 731 0465 67020000 		.4byte	0x267
 732 0469 00000000 		.4byte	.LLST0
 733 046d 19       		.uleb128 0x19
 734 046e 61706900 		.ascii	"api\000"
 735 0472 01       		.byte	0x1
 736 0473 0A       		.byte	0xa
 737 0474 67020000 		.4byte	0x267
 738 0478 21000000 		.4byte	.LLST1
 739 047c 1A       		.uleb128 0x1a
 740 047d 06000000 		.4byte	.LVL1
 741 0481 2A060000 		.4byte	0x62a
ARM GAS  /var/folders/lp/91fb3m410_x3145lb4m2f_fh0000gn/T//ccDMlR3y.s 			page 14


 742 0485 00       		.byte	0
 743 0486 17       		.uleb128 0x17
 744 0487 69020000 		.4byte	.LASF76
 745 048b 01       		.byte	0x1
 746 048c 0E       		.byte	0xe
 747 048d 10000000 		.4byte	.LFB232
 748 0491 1C000000 		.4byte	.LFE232-.LFB232
 749 0495 01       		.uleb128 0x1
 750 0496 9C       		.byte	0x9c
 751 0497 CE040000 		.4byte	0x4ce
 752 049b 18       		.uleb128 0x18
 753 049c 9D010000 		.4byte	.LASF77
 754 04a0 01       		.byte	0x1
 755 04a1 0E       		.byte	0xe
 756 04a2 F0030000 		.4byte	0x3f0
 757 04a6 42000000 		.4byte	.LLST2
 758 04aa 18       		.uleb128 0x18
 759 04ab 31000000 		.4byte	.LASF78
 760 04af 01       		.byte	0x1
 761 04b0 0F       		.byte	0xf
 762 04b1 67020000 		.4byte	0x267
 763 04b5 6E000000 		.4byte	.LLST3
 764 04b9 1B       		.uleb128 0x1b
 765 04ba 28000000 		.4byte	.LVL5
 766 04be 1C       		.uleb128 0x1c
 767 04bf 01       		.uleb128 0x1
 768 04c0 51       		.byte	0x51
 769 04c1 03       		.uleb128 0x3
 770 04c2 F3       		.byte	0xf3
 771 04c3 01       		.uleb128 0x1
 772 04c4 50       		.byte	0x50
 773 04c5 1C       		.uleb128 0x1c
 774 04c6 01       		.uleb128 0x1
 775 04c7 52       		.byte	0x52
 776 04c8 03       		.uleb128 0x3
 777 04c9 F3       		.byte	0xf3
 778 04ca 01       		.uleb128 0x1
 779 04cb 51       		.byte	0x51
 780 04cc 00       		.byte	0
 781 04cd 00       		.byte	0
 782 04ce 1D       		.uleb128 0x1d
 783 04cf F0010000 		.4byte	.LASF101
 784 04d3 01       		.byte	0x1
 785 04d4 13       		.byte	0x13
 786 04d5 CF010000 		.4byte	.LASF102
 787 04d9 2C000000 		.4byte	.LFB233
 788 04dd 40000000 		.4byte	.LFE233-.LFB233
 789 04e1 01       		.uleb128 0x1
 790 04e2 9C       		.byte	0x9c
 791 04e3 54050000 		.4byte	0x554
 792 04e7 18       		.uleb128 0x18
 793 04e8 39010000 		.4byte	.LASF79
 794 04ec 01       		.byte	0x1
 795 04ed 13       		.byte	0x13
 796 04ee 3B020000 		.4byte	0x23b
 797 04f2 9A000000 		.4byte	.LLST4
 798 04f6 18       		.uleb128 0x18
ARM GAS  /var/folders/lp/91fb3m410_x3145lb4m2f_fh0000gn/T//ccDMlR3y.s 			page 15


 799 04f7 0C010000 		.4byte	.LASF80
 800 04fb 01       		.byte	0x1
 801 04fc 13       		.byte	0x13
 802 04fd 67020000 		.4byte	0x267
 803 0501 DF000000 		.4byte	.LLST5
 804 0505 1E       		.uleb128 0x1e
 805 0506 21040000 		.4byte	0x421
 806 050a 34000000 		.4byte	.LBB4
 807 050e 0C000000 		.4byte	.LBE4-.LBB4
 808 0512 01       		.byte	0x1
 809 0513 16       		.byte	0x16
 810 0514 2B050000 		.4byte	0x52b
 811 0518 1F       		.uleb128 0x1f
 812 0519 2F040000 		.4byte	0x42f
 813 051d 24010000 		.4byte	.LLST6
 814 0521 1F       		.uleb128 0x1f
 815 0522 38040000 		.4byte	0x438
 816 0526 3B010000 		.4byte	.LLST7
 817 052a 00       		.byte	0
 818 052b 20       		.uleb128 0x20
 819 052c 52000000 		.4byte	.LVL11
 820 0530 41050000 		.4byte	0x541
 821 0534 1C       		.uleb128 0x1c
 822 0535 02       		.uleb128 0x2
 823 0536 90       		.byte	0x90
 824 0537 40       		.uleb128 0x40
 825 0538 07       		.uleb128 0x7
 826 0539 F3       		.byte	0xf3
 827 053a 01       		.uleb128 0x1
 828 053b 51       		.byte	0x51
 829 053c F7       		.byte	0xf7
 830 053d 25       		.uleb128 0x25
 831 053e F7       		.byte	0xf7
 832 053f 2C       		.uleb128 0x2c
 833 0540 00       		.byte	0
 834 0541 1B       		.uleb128 0x1b
 835 0542 64000000 		.4byte	.LVL13
 836 0546 1C       		.uleb128 0x1c
 837 0547 02       		.uleb128 0x2
 838 0548 90       		.byte	0x90
 839 0549 40       		.uleb128 0x40
 840 054a 07       		.uleb128 0x7
 841 054b F3       		.byte	0xf3
 842 054c 01       		.uleb128 0x1
 843 054d 51       		.byte	0x51
 844 054e F7       		.byte	0xf7
 845 054f 25       		.uleb128 0x25
 846 0550 F7       		.byte	0xf7
 847 0551 2C       		.uleb128 0x2c
 848 0552 00       		.byte	0
 849 0553 00       		.byte	0
 850 0554 21       		.uleb128 0x21
 851 0555 4E020000 		.4byte	.LASF81
 852 0559 09       		.byte	0x9
 853 055a 46       		.byte	0x46
 854 055b 5F050000 		.4byte	0x55f
 855 055f 16       		.uleb128 0x16
ARM GAS  /var/folders/lp/91fb3m410_x3145lb4m2f_fh0000gn/T//ccDMlR3y.s 			page 16


 856 0560 67020000 		.4byte	0x267
 857 0564 21       		.uleb128 0x21
 858 0565 5A060000 		.4byte	.LASF82
 859 0569 09       		.byte	0x9
 860 056a 4B       		.byte	0x4b
 861 056b 5F050000 		.4byte	0x55f
 862 056f 22       		.uleb128 0x22
 863 0570 7F050000 		.4byte	0x57f
 864 0574 7F050000 		.4byte	0x57f
 865 0578 23       		.uleb128 0x23
 866 0579 70030000 		.4byte	0x370
 867 057d 80       		.byte	0x80
 868 057e 00       		.byte	0
 869 057f 16       		.uleb128 0x16
 870 0580 2C000000 		.4byte	0x2c
 871 0584 21       		.uleb128 0x21
 872 0585 83040000 		.4byte	.LASF83
 873 0589 09       		.byte	0x9
 874 058a 82       		.byte	0x82
 875 058b 8F050000 		.4byte	0x58f
 876 058f 16       		.uleb128 0x16
 877 0590 6F050000 		.4byte	0x56f
 878 0594 22       		.uleb128 0x22
 879 0595 7F050000 		.4byte	0x57f
 880 0599 A5050000 		.4byte	0x5a5
 881 059d 24       		.uleb128 0x24
 882 059e 70030000 		.4byte	0x370
 883 05a2 0001     		.2byte	0x100
 884 05a4 00       		.byte	0
 885 05a5 21       		.uleb128 0x21
 886 05a6 44020000 		.4byte	.LASF84
 887 05aa 09       		.byte	0x9
 888 05ab C9       		.byte	0xc9
 889 05ac B0050000 		.4byte	0x5b0
 890 05b0 16       		.uleb128 0x16
 891 05b1 94050000 		.4byte	0x594
 892 05b5 21       		.uleb128 0x21
 893 05b6 29050000 		.4byte	.LASF85
 894 05ba 09       		.byte	0x9
 895 05bb E0       		.byte	0xe0
 896 05bc C0050000 		.4byte	0x5c0
 897 05c0 16       		.uleb128 0x16
 898 05c1 94050000 		.4byte	0x594
 899 05c5 21       		.uleb128 0x21
 900 05c6 FB050000 		.4byte	.LASF86
 901 05ca 09       		.byte	0x9
 902 05cb F8       		.byte	0xf8
 903 05cc D0050000 		.4byte	0x5d0
 904 05d0 16       		.uleb128 0x16
 905 05d1 94050000 		.4byte	0x594
 906 05d5 25       		.uleb128 0x25
 907 05d6 98050000 		.4byte	.LASF87
 908 05da 09       		.byte	0x9
 909 05db 0F01     		.2byte	0x10f
 910 05dd E1050000 		.4byte	0x5e1
 911 05e1 16       		.uleb128 0x16
 912 05e2 94050000 		.4byte	0x594
ARM GAS  /var/folders/lp/91fb3m410_x3145lb4m2f_fh0000gn/T//ccDMlR3y.s 			page 17


 913 05e6 25       		.uleb128 0x25
 914 05e7 A5000000 		.4byte	.LASF88
 915 05eb 09       		.byte	0x9
 916 05ec 3E01     		.2byte	0x13e
 917 05ee F2050000 		.4byte	0x5f2
 918 05f2 16       		.uleb128 0x16
 919 05f3 6F050000 		.4byte	0x56f
 920 05f7 25       		.uleb128 0x25
 921 05f8 E1010000 		.4byte	.LASF89
 922 05fc 09       		.byte	0x9
 923 05fd 5301     		.2byte	0x153
 924 05ff 03060000 		.4byte	0x603
 925 0603 16       		.uleb128 0x16
 926 0604 6F050000 		.4byte	0x56f
 927 0608 25       		.uleb128 0x25
 928 0609 CF000000 		.4byte	.LASF90
 929 060d 09       		.byte	0x9
 930 060e 7001     		.2byte	0x170
 931 0610 14060000 		.4byte	0x614
 932 0614 16       		.uleb128 0x16
 933 0615 6F050000 		.4byte	0x56f
 934 0619 26       		.uleb128 0x26
 935 061a 0B060000 		.4byte	.LASF91
 936 061e 01       		.byte	0x1
 937 061f 08       		.byte	0x8
 938 0620 1B040000 		.4byte	0x41b
 939 0624 05       		.uleb128 0x5
 940 0625 03       		.byte	0x3
 941 0626 00000000 		.4byte	verb
 942 062a 27       		.uleb128 0x27
 943 062b 6F040000 		.4byte	.LASF103
 944 062f 10060000 		.4byte	.LASF104
 945 0633 0C       		.byte	0xc
 946 0634 0A       		.byte	0xa
 947 0635 6F040000 		.4byte	.LASF103
 948 0639 00       		.byte	0
 949              		.section	.debug_abbrev,"",%progbits
 950              	.Ldebug_abbrev0:
 951 0000 01       		.uleb128 0x1
 952 0001 11       		.uleb128 0x11
 953 0002 01       		.byte	0x1
 954 0003 25       		.uleb128 0x25
 955 0004 0E       		.uleb128 0xe
 956 0005 13       		.uleb128 0x13
 957 0006 0B       		.uleb128 0xb
 958 0007 03       		.uleb128 0x3
 959 0008 0E       		.uleb128 0xe
 960 0009 1B       		.uleb128 0x1b
 961 000a 0E       		.uleb128 0xe
 962 000b 11       		.uleb128 0x11
 963 000c 01       		.uleb128 0x1
 964 000d 12       		.uleb128 0x12
 965 000e 06       		.uleb128 0x6
 966 000f 10       		.uleb128 0x10
 967 0010 17       		.uleb128 0x17
 968 0011 00       		.byte	0
 969 0012 00       		.byte	0
ARM GAS  /var/folders/lp/91fb3m410_x3145lb4m2f_fh0000gn/T//ccDMlR3y.s 			page 18


 970 0013 02       		.uleb128 0x2
 971 0014 24       		.uleb128 0x24
 972 0015 00       		.byte	0
 973 0016 0B       		.uleb128 0xb
 974 0017 0B       		.uleb128 0xb
 975 0018 3E       		.uleb128 0x3e
 976 0019 0B       		.uleb128 0xb
 977 001a 03       		.uleb128 0x3
 978 001b 0E       		.uleb128 0xe
 979 001c 00       		.byte	0
 980 001d 00       		.byte	0
 981 001e 03       		.uleb128 0x3
 982 001f 39       		.uleb128 0x39
 983 0020 01       		.byte	0x1
 984 0021 03       		.uleb128 0x3
 985 0022 08       		.uleb128 0x8
 986 0023 3A       		.uleb128 0x3a
 987 0024 0B       		.uleb128 0xb
 988 0025 3B       		.uleb128 0x3b
 989 0026 0B       		.uleb128 0xb
 990 0027 01       		.uleb128 0x1
 991 0028 13       		.uleb128 0x13
 992 0029 00       		.byte	0
 993 002a 00       		.byte	0
 994 002b 04       		.uleb128 0x4
 995 002c 39       		.uleb128 0x39
 996 002d 00       		.byte	0
 997 002e 03       		.uleb128 0x3
 998 002f 0E       		.uleb128 0xe
 999 0030 3A       		.uleb128 0x3a
 1000 0031 0B       		.uleb128 0xb
 1001 0032 3B       		.uleb128 0x3b
 1002 0033 0B       		.uleb128 0xb
 1003 0034 00       		.byte	0
 1004 0035 00       		.byte	0
 1005 0036 05       		.uleb128 0x5
 1006 0037 3A       		.uleb128 0x3a
 1007 0038 00       		.byte	0
 1008 0039 3A       		.uleb128 0x3a
 1009 003a 0B       		.uleb128 0xb
 1010 003b 3B       		.uleb128 0x3b
 1011 003c 0B       		.uleb128 0xb
 1012 003d 18       		.uleb128 0x18
 1013 003e 13       		.uleb128 0x13
 1014 003f 00       		.byte	0
 1015 0040 00       		.byte	0
 1016 0041 06       		.uleb128 0x6
 1017 0042 08       		.uleb128 0x8
 1018 0043 00       		.byte	0
 1019 0044 3A       		.uleb128 0x3a
 1020 0045 0B       		.uleb128 0xb
 1021 0046 3B       		.uleb128 0x3b
 1022 0047 0B       		.uleb128 0xb
 1023 0048 18       		.uleb128 0x18
 1024 0049 13       		.uleb128 0x13
 1025 004a 00       		.byte	0
 1026 004b 00       		.byte	0
ARM GAS  /var/folders/lp/91fb3m410_x3145lb4m2f_fh0000gn/T//ccDMlR3y.s 			page 19


 1027 004c 07       		.uleb128 0x7
 1028 004d 39       		.uleb128 0x39
 1029 004e 01       		.byte	0x1
 1030 004f 03       		.uleb128 0x3
 1031 0050 0E       		.uleb128 0xe
 1032 0051 3A       		.uleb128 0x3a
 1033 0052 0B       		.uleb128 0xb
 1034 0053 3B       		.uleb128 0x3b
 1035 0054 0B       		.uleb128 0xb
 1036 0055 01       		.uleb128 0x1
 1037 0056 13       		.uleb128 0x13
 1038 0057 00       		.byte	0
 1039 0058 00       		.byte	0
 1040 0059 08       		.uleb128 0x8
 1041 005a 16       		.uleb128 0x16
 1042 005b 00       		.byte	0
 1043 005c 03       		.uleb128 0x3
 1044 005d 0E       		.uleb128 0xe
 1045 005e 3A       		.uleb128 0x3a
 1046 005f 0B       		.uleb128 0xb
 1047 0060 3B       		.uleb128 0x3b
 1048 0061 0B       		.uleb128 0xb
 1049 0062 49       		.uleb128 0x49
 1050 0063 13       		.uleb128 0x13
 1051 0064 00       		.byte	0
 1052 0065 00       		.byte	0
 1053 0066 09       		.uleb128 0x9
 1054 0067 24       		.uleb128 0x24
 1055 0068 00       		.byte	0
 1056 0069 0B       		.uleb128 0xb
 1057 006a 0B       		.uleb128 0xb
 1058 006b 3E       		.uleb128 0x3e
 1059 006c 0B       		.uleb128 0xb
 1060 006d 03       		.uleb128 0x3
 1061 006e 08       		.uleb128 0x8
 1062 006f 00       		.byte	0
 1063 0070 00       		.byte	0
 1064 0071 0A       		.uleb128 0xa
 1065 0072 3B       		.uleb128 0x3b
 1066 0073 00       		.byte	0
 1067 0074 03       		.uleb128 0x3
 1068 0075 0E       		.uleb128 0xe
 1069 0076 00       		.byte	0
 1070 0077 00       		.byte	0
 1071 0078 0B       		.uleb128 0xb
 1072 0079 04       		.uleb128 0x4
 1073 007a 01       		.byte	0x1
 1074 007b 0B       		.uleb128 0xb
 1075 007c 0B       		.uleb128 0xb
 1076 007d 49       		.uleb128 0x49
 1077 007e 13       		.uleb128 0x13
 1078 007f 3A       		.uleb128 0x3a
 1079 0080 0B       		.uleb128 0xb
 1080 0081 3B       		.uleb128 0x3b
 1081 0082 0B       		.uleb128 0xb
 1082 0083 01       		.uleb128 0x1
 1083 0084 13       		.uleb128 0x13
ARM GAS  /var/folders/lp/91fb3m410_x3145lb4m2f_fh0000gn/T//ccDMlR3y.s 			page 20


 1084 0085 00       		.byte	0
 1085 0086 00       		.byte	0
 1086 0087 0C       		.uleb128 0xc
 1087 0088 28       		.uleb128 0x28
 1088 0089 00       		.byte	0
 1089 008a 03       		.uleb128 0x3
 1090 008b 0E       		.uleb128 0xe
 1091 008c 1C       		.uleb128 0x1c
 1092 008d 0B       		.uleb128 0xb
 1093 008e 00       		.byte	0
 1094 008f 00       		.byte	0
 1095 0090 0D       		.uleb128 0xd
 1096 0091 04       		.uleb128 0x4
 1097 0092 01       		.byte	0x1
 1098 0093 0B       		.uleb128 0xb
 1099 0094 0B       		.uleb128 0xb
 1100 0095 49       		.uleb128 0x49
 1101 0096 13       		.uleb128 0x13
 1102 0097 3A       		.uleb128 0x3a
 1103 0098 0B       		.uleb128 0xb
 1104 0099 3B       		.uleb128 0x3b
 1105 009a 0B       		.uleb128 0xb
 1106 009b 6E       		.uleb128 0x6e
 1107 009c 0E       		.uleb128 0xe
 1108 009d 01       		.uleb128 0x1
 1109 009e 13       		.uleb128 0x13
 1110 009f 00       		.byte	0
 1111 00a0 00       		.byte	0
 1112 00a1 0E       		.uleb128 0xe
 1113 00a2 0F       		.uleb128 0xf
 1114 00a3 00       		.byte	0
 1115 00a4 0B       		.uleb128 0xb
 1116 00a5 0B       		.uleb128 0xb
 1117 00a6 49       		.uleb128 0x49
 1118 00a7 13       		.uleb128 0x13
 1119 00a8 00       		.byte	0
 1120 00a9 00       		.byte	0
 1121 00aa 0F       		.uleb128 0xf
 1122 00ab 02       		.uleb128 0x2
 1123 00ac 01       		.byte	0x1
 1124 00ad 03       		.uleb128 0x3
 1125 00ae 0E       		.uleb128 0xe
 1126 00af 3C       		.uleb128 0x3c
 1127 00b0 19       		.uleb128 0x19
 1128 00b1 01       		.uleb128 0x1
 1129 00b2 13       		.uleb128 0x13
 1130 00b3 00       		.byte	0
 1131 00b4 00       		.byte	0
 1132 00b5 10       		.uleb128 0x10
 1133 00b6 2E       		.uleb128 0x2e
 1134 00b7 01       		.byte	0x1
 1135 00b8 3F       		.uleb128 0x3f
 1136 00b9 19       		.uleb128 0x19
 1137 00ba 03       		.uleb128 0x3
 1138 00bb 0E       		.uleb128 0xe
 1139 00bc 3A       		.uleb128 0x3a
 1140 00bd 0B       		.uleb128 0xb
ARM GAS  /var/folders/lp/91fb3m410_x3145lb4m2f_fh0000gn/T//ccDMlR3y.s 			page 21


 1141 00be 3B       		.uleb128 0x3b
 1142 00bf 0B       		.uleb128 0xb
 1143 00c0 6E       		.uleb128 0x6e
 1144 00c1 0E       		.uleb128 0xe
 1145 00c2 32       		.uleb128 0x32
 1146 00c3 0B       		.uleb128 0xb
 1147 00c4 3C       		.uleb128 0x3c
 1148 00c5 19       		.uleb128 0x19
 1149 00c6 64       		.uleb128 0x64
 1150 00c7 13       		.uleb128 0x13
 1151 00c8 00       		.byte	0
 1152 00c9 00       		.byte	0
 1153 00ca 11       		.uleb128 0x11
 1154 00cb 05       		.uleb128 0x5
 1155 00cc 00       		.byte	0
 1156 00cd 49       		.uleb128 0x49
 1157 00ce 13       		.uleb128 0x13
 1158 00cf 34       		.uleb128 0x34
 1159 00d0 19       		.uleb128 0x19
 1160 00d1 00       		.byte	0
 1161 00d2 00       		.byte	0
 1162 00d3 12       		.uleb128 0x12
 1163 00d4 05       		.uleb128 0x5
 1164 00d5 00       		.byte	0
 1165 00d6 49       		.uleb128 0x49
 1166 00d7 13       		.uleb128 0x13
 1167 00d8 00       		.byte	0
 1168 00d9 00       		.byte	0
 1169 00da 13       		.uleb128 0x13
 1170 00db 2E       		.uleb128 0x2e
 1171 00dc 01       		.byte	0x1
 1172 00dd 47       		.uleb128 0x47
 1173 00de 13       		.uleb128 0x13
 1174 00df 20       		.uleb128 0x20
 1175 00e0 0B       		.uleb128 0xb
 1176 00e1 64       		.uleb128 0x64
 1177 00e2 13       		.uleb128 0x13
 1178 00e3 01       		.uleb128 0x1
 1179 00e4 13       		.uleb128 0x13
 1180 00e5 00       		.byte	0
 1181 00e6 00       		.byte	0
 1182 00e7 14       		.uleb128 0x14
 1183 00e8 05       		.uleb128 0x5
 1184 00e9 00       		.byte	0
 1185 00ea 03       		.uleb128 0x3
 1186 00eb 0E       		.uleb128 0xe
 1187 00ec 49       		.uleb128 0x49
 1188 00ed 13       		.uleb128 0x13
 1189 00ee 34       		.uleb128 0x34
 1190 00ef 19       		.uleb128 0x19
 1191 00f0 00       		.byte	0
 1192 00f1 00       		.byte	0
 1193 00f2 15       		.uleb128 0x15
 1194 00f3 05       		.uleb128 0x5
 1195 00f4 00       		.byte	0
 1196 00f5 03       		.uleb128 0x3
 1197 00f6 08       		.uleb128 0x8
ARM GAS  /var/folders/lp/91fb3m410_x3145lb4m2f_fh0000gn/T//ccDMlR3y.s 			page 22


 1198 00f7 3A       		.uleb128 0x3a
 1199 00f8 0B       		.uleb128 0xb
 1200 00f9 3B       		.uleb128 0x3b
 1201 00fa 0B       		.uleb128 0xb
 1202 00fb 49       		.uleb128 0x49
 1203 00fc 13       		.uleb128 0x13
 1204 00fd 00       		.byte	0
 1205 00fe 00       		.byte	0
 1206 00ff 16       		.uleb128 0x16
 1207 0100 26       		.uleb128 0x26
 1208 0101 00       		.byte	0
 1209 0102 49       		.uleb128 0x49
 1210 0103 13       		.uleb128 0x13
 1211 0104 00       		.byte	0
 1212 0105 00       		.byte	0
 1213 0106 17       		.uleb128 0x17
 1214 0107 2E       		.uleb128 0x2e
 1215 0108 01       		.byte	0x1
 1216 0109 3F       		.uleb128 0x3f
 1217 010a 19       		.uleb128 0x19
 1218 010b 03       		.uleb128 0x3
 1219 010c 0E       		.uleb128 0xe
 1220 010d 3A       		.uleb128 0x3a
 1221 010e 0B       		.uleb128 0xb
 1222 010f 3B       		.uleb128 0x3b
 1223 0110 0B       		.uleb128 0xb
 1224 0111 11       		.uleb128 0x11
 1225 0112 01       		.uleb128 0x1
 1226 0113 12       		.uleb128 0x12
 1227 0114 06       		.uleb128 0x6
 1228 0115 40       		.uleb128 0x40
 1229 0116 18       		.uleb128 0x18
 1230 0117 9742     		.uleb128 0x2117
 1231 0119 19       		.uleb128 0x19
 1232 011a 01       		.uleb128 0x1
 1233 011b 13       		.uleb128 0x13
 1234 011c 00       		.byte	0
 1235 011d 00       		.byte	0
 1236 011e 18       		.uleb128 0x18
 1237 011f 05       		.uleb128 0x5
 1238 0120 00       		.byte	0
 1239 0121 03       		.uleb128 0x3
 1240 0122 0E       		.uleb128 0xe
 1241 0123 3A       		.uleb128 0x3a
 1242 0124 0B       		.uleb128 0xb
 1243 0125 3B       		.uleb128 0x3b
 1244 0126 0B       		.uleb128 0xb
 1245 0127 49       		.uleb128 0x49
 1246 0128 13       		.uleb128 0x13
 1247 0129 02       		.uleb128 0x2
 1248 012a 17       		.uleb128 0x17
 1249 012b 00       		.byte	0
 1250 012c 00       		.byte	0
 1251 012d 19       		.uleb128 0x19
 1252 012e 05       		.uleb128 0x5
 1253 012f 00       		.byte	0
 1254 0130 03       		.uleb128 0x3
ARM GAS  /var/folders/lp/91fb3m410_x3145lb4m2f_fh0000gn/T//ccDMlR3y.s 			page 23


 1255 0131 08       		.uleb128 0x8
 1256 0132 3A       		.uleb128 0x3a
 1257 0133 0B       		.uleb128 0xb
 1258 0134 3B       		.uleb128 0x3b
 1259 0135 0B       		.uleb128 0xb
 1260 0136 49       		.uleb128 0x49
 1261 0137 13       		.uleb128 0x13
 1262 0138 02       		.uleb128 0x2
 1263 0139 17       		.uleb128 0x17
 1264 013a 00       		.byte	0
 1265 013b 00       		.byte	0
 1266 013c 1A       		.uleb128 0x1a
 1267 013d 898201   		.uleb128 0x4109
 1268 0140 00       		.byte	0
 1269 0141 11       		.uleb128 0x11
 1270 0142 01       		.uleb128 0x1
 1271 0143 31       		.uleb128 0x31
 1272 0144 13       		.uleb128 0x13
 1273 0145 00       		.byte	0
 1274 0146 00       		.byte	0
 1275 0147 1B       		.uleb128 0x1b
 1276 0148 898201   		.uleb128 0x4109
 1277 014b 01       		.byte	0x1
 1278 014c 11       		.uleb128 0x11
 1279 014d 01       		.uleb128 0x1
 1280 014e 9542     		.uleb128 0x2115
 1281 0150 19       		.uleb128 0x19
 1282 0151 00       		.byte	0
 1283 0152 00       		.byte	0
 1284 0153 1C       		.uleb128 0x1c
 1285 0154 8A8201   		.uleb128 0x410a
 1286 0157 00       		.byte	0
 1287 0158 02       		.uleb128 0x2
 1288 0159 18       		.uleb128 0x18
 1289 015a 9142     		.uleb128 0x2111
 1290 015c 18       		.uleb128 0x18
 1291 015d 00       		.byte	0
 1292 015e 00       		.byte	0
 1293 015f 1D       		.uleb128 0x1d
 1294 0160 2E       		.uleb128 0x2e
 1295 0161 01       		.byte	0x1
 1296 0162 3F       		.uleb128 0x3f
 1297 0163 19       		.uleb128 0x19
 1298 0164 03       		.uleb128 0x3
 1299 0165 0E       		.uleb128 0xe
 1300 0166 3A       		.uleb128 0x3a
 1301 0167 0B       		.uleb128 0xb
 1302 0168 3B       		.uleb128 0x3b
 1303 0169 0B       		.uleb128 0xb
 1304 016a 6E       		.uleb128 0x6e
 1305 016b 0E       		.uleb128 0xe
 1306 016c 11       		.uleb128 0x11
 1307 016d 01       		.uleb128 0x1
 1308 016e 12       		.uleb128 0x12
 1309 016f 06       		.uleb128 0x6
 1310 0170 40       		.uleb128 0x40
 1311 0171 18       		.uleb128 0x18
ARM GAS  /var/folders/lp/91fb3m410_x3145lb4m2f_fh0000gn/T//ccDMlR3y.s 			page 24


 1312 0172 9742     		.uleb128 0x2117
 1313 0174 19       		.uleb128 0x19
 1314 0175 01       		.uleb128 0x1
 1315 0176 13       		.uleb128 0x13
 1316 0177 00       		.byte	0
 1317 0178 00       		.byte	0
 1318 0179 1E       		.uleb128 0x1e
 1319 017a 1D       		.uleb128 0x1d
 1320 017b 01       		.byte	0x1
 1321 017c 31       		.uleb128 0x31
 1322 017d 13       		.uleb128 0x13
 1323 017e 11       		.uleb128 0x11
 1324 017f 01       		.uleb128 0x1
 1325 0180 12       		.uleb128 0x12
 1326 0181 06       		.uleb128 0x6
 1327 0182 58       		.uleb128 0x58
 1328 0183 0B       		.uleb128 0xb
 1329 0184 59       		.uleb128 0x59
 1330 0185 0B       		.uleb128 0xb
 1331 0186 01       		.uleb128 0x1
 1332 0187 13       		.uleb128 0x13
 1333 0188 00       		.byte	0
 1334 0189 00       		.byte	0
 1335 018a 1F       		.uleb128 0x1f
 1336 018b 05       		.uleb128 0x5
 1337 018c 00       		.byte	0
 1338 018d 31       		.uleb128 0x31
 1339 018e 13       		.uleb128 0x13
 1340 018f 02       		.uleb128 0x2
 1341 0190 17       		.uleb128 0x17
 1342 0191 00       		.byte	0
 1343 0192 00       		.byte	0
 1344 0193 20       		.uleb128 0x20
 1345 0194 898201   		.uleb128 0x4109
 1346 0197 01       		.byte	0x1
 1347 0198 11       		.uleb128 0x11
 1348 0199 01       		.uleb128 0x1
 1349 019a 9542     		.uleb128 0x2115
 1350 019c 19       		.uleb128 0x19
 1351 019d 01       		.uleb128 0x1
 1352 019e 13       		.uleb128 0x13
 1353 019f 00       		.byte	0
 1354 01a0 00       		.byte	0
 1355 01a1 21       		.uleb128 0x21
 1356 01a2 34       		.uleb128 0x34
 1357 01a3 00       		.byte	0
 1358 01a4 03       		.uleb128 0x3
 1359 01a5 0E       		.uleb128 0xe
 1360 01a6 3A       		.uleb128 0x3a
 1361 01a7 0B       		.uleb128 0xb
 1362 01a8 3B       		.uleb128 0x3b
 1363 01a9 0B       		.uleb128 0xb
 1364 01aa 49       		.uleb128 0x49
 1365 01ab 13       		.uleb128 0x13
 1366 01ac 3F       		.uleb128 0x3f
 1367 01ad 19       		.uleb128 0x19
 1368 01ae 3C       		.uleb128 0x3c
ARM GAS  /var/folders/lp/91fb3m410_x3145lb4m2f_fh0000gn/T//ccDMlR3y.s 			page 25


 1369 01af 19       		.uleb128 0x19
 1370 01b0 00       		.byte	0
 1371 01b1 00       		.byte	0
 1372 01b2 22       		.uleb128 0x22
 1373 01b3 01       		.uleb128 0x1
 1374 01b4 01       		.byte	0x1
 1375 01b5 49       		.uleb128 0x49
 1376 01b6 13       		.uleb128 0x13
 1377 01b7 01       		.uleb128 0x1
 1378 01b8 13       		.uleb128 0x13
 1379 01b9 00       		.byte	0
 1380 01ba 00       		.byte	0
 1381 01bb 23       		.uleb128 0x23
 1382 01bc 21       		.uleb128 0x21
 1383 01bd 00       		.byte	0
 1384 01be 49       		.uleb128 0x49
 1385 01bf 13       		.uleb128 0x13
 1386 01c0 2F       		.uleb128 0x2f
 1387 01c1 0B       		.uleb128 0xb
 1388 01c2 00       		.byte	0
 1389 01c3 00       		.byte	0
 1390 01c4 24       		.uleb128 0x24
 1391 01c5 21       		.uleb128 0x21
 1392 01c6 00       		.byte	0
 1393 01c7 49       		.uleb128 0x49
 1394 01c8 13       		.uleb128 0x13
 1395 01c9 2F       		.uleb128 0x2f
 1396 01ca 05       		.uleb128 0x5
 1397 01cb 00       		.byte	0
 1398 01cc 00       		.byte	0
 1399 01cd 25       		.uleb128 0x25
 1400 01ce 34       		.uleb128 0x34
 1401 01cf 00       		.byte	0
 1402 01d0 03       		.uleb128 0x3
 1403 01d1 0E       		.uleb128 0xe
 1404 01d2 3A       		.uleb128 0x3a
 1405 01d3 0B       		.uleb128 0xb
 1406 01d4 3B       		.uleb128 0x3b
 1407 01d5 05       		.uleb128 0x5
 1408 01d6 49       		.uleb128 0x49
 1409 01d7 13       		.uleb128 0x13
 1410 01d8 3F       		.uleb128 0x3f
 1411 01d9 19       		.uleb128 0x19
 1412 01da 3C       		.uleb128 0x3c
 1413 01db 19       		.uleb128 0x19
 1414 01dc 00       		.byte	0
 1415 01dd 00       		.byte	0
 1416 01de 26       		.uleb128 0x26
 1417 01df 34       		.uleb128 0x34
 1418 01e0 00       		.byte	0
 1419 01e1 03       		.uleb128 0x3
 1420 01e2 0E       		.uleb128 0xe
 1421 01e3 3A       		.uleb128 0x3a
 1422 01e4 0B       		.uleb128 0xb
 1423 01e5 3B       		.uleb128 0x3b
 1424 01e6 0B       		.uleb128 0xb
 1425 01e7 49       		.uleb128 0x49
ARM GAS  /var/folders/lp/91fb3m410_x3145lb4m2f_fh0000gn/T//ccDMlR3y.s 			page 26


 1426 01e8 13       		.uleb128 0x13
 1427 01e9 3F       		.uleb128 0x3f
 1428 01ea 19       		.uleb128 0x19
 1429 01eb 02       		.uleb128 0x2
 1430 01ec 18       		.uleb128 0x18
 1431 01ed 00       		.byte	0
 1432 01ee 00       		.byte	0
 1433 01ef 27       		.uleb128 0x27
 1434 01f0 2E       		.uleb128 0x2e
 1435 01f1 00       		.byte	0
 1436 01f2 3F       		.uleb128 0x3f
 1437 01f3 19       		.uleb128 0x19
 1438 01f4 3C       		.uleb128 0x3c
 1439 01f5 19       		.uleb128 0x19
 1440 01f6 6E       		.uleb128 0x6e
 1441 01f7 0E       		.uleb128 0xe
 1442 01f8 03       		.uleb128 0x3
 1443 01f9 0E       		.uleb128 0xe
 1444 01fa 3A       		.uleb128 0x3a
 1445 01fb 0B       		.uleb128 0xb
 1446 01fc 3B       		.uleb128 0x3b
 1447 01fd 0B       		.uleb128 0xb
 1448 01fe 6E       		.uleb128 0x6e
 1449 01ff 0E       		.uleb128 0xe
 1450 0200 00       		.byte	0
 1451 0201 00       		.byte	0
 1452 0202 00       		.byte	0
 1453              		.section	.debug_loc,"",%progbits
 1454              	.Ldebug_loc0:
 1455              	.LLST0:
 1456 0000 00000000 		.4byte	.LVL0-.Ltext0
 1457 0004 05000000 		.4byte	.LVL1-1-.Ltext0
 1458 0008 0100     		.2byte	0x1
 1459 000a 50       		.byte	0x50
 1460 000b 05000000 		.4byte	.LVL1-1-.Ltext0
 1461 000f 10000000 		.4byte	.LFE231-.Ltext0
 1462 0013 0400     		.2byte	0x4
 1463 0015 F3       		.byte	0xf3
 1464 0016 01       		.uleb128 0x1
 1465 0017 50       		.byte	0x50
 1466 0018 9F       		.byte	0x9f
 1467 0019 00000000 		.4byte	0
 1468 001d 00000000 		.4byte	0
 1469              	.LLST1:
 1470 0021 00000000 		.4byte	.LVL0-.Ltext0
 1471 0025 05000000 		.4byte	.LVL1-1-.Ltext0
 1472 0029 0100     		.2byte	0x1
 1473 002b 51       		.byte	0x51
 1474 002c 05000000 		.4byte	.LVL1-1-.Ltext0
 1475 0030 10000000 		.4byte	.LFE231-.Ltext0
 1476 0034 0400     		.2byte	0x4
 1477 0036 F3       		.byte	0xf3
 1478 0037 01       		.uleb128 0x1
 1479 0038 51       		.byte	0x51
 1480 0039 9F       		.byte	0x9f
 1481 003a 00000000 		.4byte	0
 1482 003e 00000000 		.4byte	0
ARM GAS  /var/folders/lp/91fb3m410_x3145lb4m2f_fh0000gn/T//ccDMlR3y.s 			page 27


 1483              	.LLST2:
 1484 0042 10000000 		.4byte	.LVL2-.Ltext0
 1485 0046 20000000 		.4byte	.LVL4-.Ltext0
 1486 004a 0100     		.2byte	0x1
 1487 004c 50       		.byte	0x50
 1488 004d 20000000 		.4byte	.LVL4-.Ltext0
 1489 0051 27000000 		.4byte	.LVL5-1-.Ltext0
 1490 0055 0100     		.2byte	0x1
 1491 0057 51       		.byte	0x51
 1492 0058 27000000 		.4byte	.LVL5-1-.Ltext0
 1493 005c 2C000000 		.4byte	.LFE232-.Ltext0
 1494 0060 0400     		.2byte	0x4
 1495 0062 F3       		.byte	0xf3
 1496 0063 01       		.uleb128 0x1
 1497 0064 50       		.byte	0x50
 1498 0065 9F       		.byte	0x9f
 1499 0066 00000000 		.4byte	0
 1500 006a 00000000 		.4byte	0
 1501              	.LLST3:
 1502 006e 10000000 		.4byte	.LVL2-.Ltext0
 1503 0072 1E000000 		.4byte	.LVL3-.Ltext0
 1504 0076 0100     		.2byte	0x1
 1505 0078 51       		.byte	0x51
 1506 0079 1E000000 		.4byte	.LVL3-.Ltext0
 1507 007d 27000000 		.4byte	.LVL5-1-.Ltext0
 1508 0081 0100     		.2byte	0x1
 1509 0083 52       		.byte	0x52
 1510 0084 27000000 		.4byte	.LVL5-1-.Ltext0
 1511 0088 2C000000 		.4byte	.LFE232-.Ltext0
 1512 008c 0400     		.2byte	0x4
 1513 008e F3       		.byte	0xf3
 1514 008f 01       		.uleb128 0x1
 1515 0090 51       		.byte	0x51
 1516 0091 9F       		.byte	0x9f
 1517 0092 00000000 		.4byte	0
 1518 0096 00000000 		.4byte	0
 1519              	.LLST4:
 1520 009a 2C000000 		.4byte	.LVL6-.Ltext0
 1521 009e 48000000 		.4byte	.LVL10-.Ltext0
 1522 00a2 0100     		.2byte	0x1
 1523 00a4 50       		.byte	0x50
 1524 00a5 48000000 		.4byte	.LVL10-.Ltext0
 1525 00a9 52000000 		.4byte	.LVL11-.Ltext0
 1526 00ad 0400     		.2byte	0x4
 1527 00af F3       		.byte	0xf3
 1528 00b0 01       		.uleb128 0x1
 1529 00b1 50       		.byte	0x50
 1530 00b2 9F       		.byte	0x9f
 1531 00b3 52000000 		.4byte	.LVL11-.Ltext0
 1532 00b7 5A000000 		.4byte	.LVL12-.Ltext0
 1533 00bb 0100     		.2byte	0x1
 1534 00bd 50       		.byte	0x50
 1535 00be 5A000000 		.4byte	.LVL12-.Ltext0
 1536 00c2 64000000 		.4byte	.LVL13-.Ltext0
 1537 00c6 0400     		.2byte	0x4
 1538 00c8 F3       		.byte	0xf3
 1539 00c9 01       		.uleb128 0x1
ARM GAS  /var/folders/lp/91fb3m410_x3145lb4m2f_fh0000gn/T//ccDMlR3y.s 			page 28


 1540 00ca 50       		.byte	0x50
 1541 00cb 9F       		.byte	0x9f
 1542 00cc 64000000 		.4byte	.LVL13-.Ltext0
 1543 00d0 6C000000 		.4byte	.LFE233-.Ltext0
 1544 00d4 0100     		.2byte	0x1
 1545 00d6 50       		.byte	0x50
 1546 00d7 00000000 		.4byte	0
 1547 00db 00000000 		.4byte	0
 1548              	.LLST5:
 1549 00df 2C000000 		.4byte	.LVL6-.Ltext0
 1550 00e3 51000000 		.4byte	.LVL11-1-.Ltext0
 1551 00e7 0100     		.2byte	0x1
 1552 00e9 51       		.byte	0x51
 1553 00ea 51000000 		.4byte	.LVL11-1-.Ltext0
 1554 00ee 52000000 		.4byte	.LVL11-.Ltext0
 1555 00f2 0400     		.2byte	0x4
 1556 00f4 F3       		.byte	0xf3
 1557 00f5 01       		.uleb128 0x1
 1558 00f6 51       		.byte	0x51
 1559 00f7 9F       		.byte	0x9f
 1560 00f8 52000000 		.4byte	.LVL11-.Ltext0
 1561 00fc 63000000 		.4byte	.LVL13-1-.Ltext0
 1562 0100 0100     		.2byte	0x1
 1563 0102 51       		.byte	0x51
 1564 0103 63000000 		.4byte	.LVL13-1-.Ltext0
 1565 0107 64000000 		.4byte	.LVL13-.Ltext0
 1566 010b 0400     		.2byte	0x4
 1567 010d F3       		.byte	0xf3
 1568 010e 01       		.uleb128 0x1
 1569 010f 51       		.byte	0x51
 1570 0110 9F       		.byte	0x9f
 1571 0111 64000000 		.4byte	.LVL13-.Ltext0
 1572 0115 6C000000 		.4byte	.LFE233-.Ltext0
 1573 0119 0100     		.2byte	0x1
 1574 011b 51       		.byte	0x51
 1575 011c 00000000 		.4byte	0
 1576 0120 00000000 		.4byte	0
 1577              	.LLST6:
 1578 0124 32000000 		.4byte	.LVL7-.Ltext0
 1579 0128 40000000 		.4byte	.LVL9-.Ltext0
 1580 012c 0500     		.2byte	0x5
 1581 012e 03       		.byte	0x3
 1582 012f 00000000 		.4byte	verb
 1583 0133 00000000 		.4byte	0
 1584 0137 00000000 		.4byte	0
 1585              	.LLST7:
 1586 013b 32000000 		.4byte	.LVL7-.Ltext0
 1587 013f 38000000 		.4byte	.LVL8-.Ltext0
 1588 0143 0700     		.2byte	0x7
 1589 0145 71       		.byte	0x71
 1590 0146 00       		.sleb128 0
 1591 0147 F7       		.byte	0xf7
 1592 0148 25       		.uleb128 0x25
 1593 0149 F7       		.byte	0xf7
 1594 014a 2C       		.uleb128 0x2c
 1595 014b 9F       		.byte	0x9f
 1596 014c 38000000 		.4byte	.LVL8-.Ltext0
ARM GAS  /var/folders/lp/91fb3m410_x3145lb4m2f_fh0000gn/T//ccDMlR3y.s 			page 29


 1597 0150 40000000 		.4byte	.LVL9-.Ltext0
 1598 0154 0200     		.2byte	0x2
 1599 0156 90       		.byte	0x90
 1600 0157 40       		.uleb128 0x40
 1601 0158 00000000 		.4byte	0
 1602 015c 00000000 		.4byte	0
 1603              		.section	.debug_aranges,"",%progbits
 1604 0000 1C000000 		.4byte	0x1c
 1605 0004 0200     		.2byte	0x2
 1606 0006 00000000 		.4byte	.Ldebug_info0
 1607 000a 04       		.byte	0x4
 1608 000b 00       		.byte	0
 1609 000c 0000     		.2byte	0
 1610 000e 0000     		.2byte	0
 1611 0010 00000000 		.4byte	.Ltext0
 1612 0014 6C000000 		.4byte	.Letext0-.Ltext0
 1613 0018 00000000 		.4byte	0
 1614 001c 00000000 		.4byte	0
 1615              		.section	.debug_line,"",%progbits
 1616              	.Ldebug_line0:
 1617 0000 A2030000 		.section	.debug_str,"MS",%progbits,1
 1617      02007903 
 1617      00000201 
 1617      FB0E0D00 
 1617      01010101 
 1618              	.LASF97:
 1619 0000 52657665 		.ascii	"Reverb\000"
 1619      726200
 1620              	.LASF1:
 1621 0007 666C6F61 		.ascii	"float\000"
 1621      7400
 1622              	.LASF95:
 1623 000d 6465636C 		.ascii	"decltype(nullptr)\000"
 1623      74797065 
 1623      286E756C 
 1623      6C707472 
 1623      2900
 1624              	.LASF3:
 1625 001f 5F5F6378 		.ascii	"__cxx11\000"
 1625      78313100 
 1626              	.LASF8:
 1627 0027 5F5F696E 		.ascii	"__int16_t\000"
 1627      7431365F 
 1627      7400
 1628              	.LASF78:
 1629 0031 6672616D 		.ascii	"frames\000"
 1629      657300
 1630              	.LASF18:
 1631 0038 5F5F7569 		.ascii	"__uint64_t\000"
 1631      6E743634 
 1631      5F7400
 1632              	.LASF20:
 1633 0043 5F5F696E 		.ascii	"__int_least8_t\000"
 1633      745F6C65 
 1633      61737438 
 1633      5F7400
 1634              	.LASF75:
ARM GAS  /var/folders/lp/91fb3m410_x3145lb4m2f_fh0000gn/T//ccDMlR3y.s 			page 30


 1635 0052 5F686F6F 		.ascii	"_hook_init\000"
 1635      6B5F696E 
 1635      697400
 1636              	.LASF30:
 1637 005d 696E7438 		.ascii	"int8_t\000"
 1637      5F7400
 1638              	.LASF68:
 1639 0064 6B5F7573 		.ascii	"k_user_revfx_param_time\000"
 1639      65725F72 
 1639      65766678 
 1639      5F706172 
 1639      616D5F74 
 1640              	.LASF37:
 1641 007c 75696E74 		.ascii	"uint64_t\000"
 1641      36345F74 
 1641      00
 1642              	.LASF9:
 1643 0085 73686F72 		.ascii	"short int\000"
 1643      7420696E 
 1643      7400
 1644              	.LASF38:
 1645 008f 696E7470 		.ascii	"intptr_t\000"
 1645      74725F74 
 1645      00
 1646              	.LASF54:
 1647 0098 696E745F 		.ascii	"int_fast64_t\000"
 1647      66617374 
 1647      36345F74 
 1647      00
 1648              	.LASF88:
 1649 00a5 63756269 		.ascii	"cubicsat_lut_f\000"
 1649      63736174 
 1649      5F6C7574 
 1649      5F6600
 1650              	.LASF21:
 1651 00b4 5F5F7569 		.ascii	"__uint_least8_t\000"
 1651      6E745F6C 
 1651      65617374 
 1651      385F7400 
 1652              	.LASF14:
 1653 00c4 5F5F7569 		.ascii	"__uint32_t\000"
 1653      6E743332 
 1653      5F7400
 1654              	.LASF90:
 1655 00cf 62697472 		.ascii	"bitres_lut_f\000"
 1655      65735F6C 
 1655      75745F66 
 1655      00
 1656              	.LASF10:
 1657 00dc 5F5F7569 		.ascii	"__uint16_t\000"
 1657      6E743136 
 1657      5F7400
 1658              	.LASF47:
 1659 00e7 75696E74 		.ascii	"uint_least64_t\000"
 1659      5F6C6561 
 1659      73743634 
 1659      5F7400
ARM GAS  /var/folders/lp/91fb3m410_x3145lb4m2f_fh0000gn/T//ccDMlR3y.s 			page 31


 1660              	.LASF55:
 1661 00f6 75696E74 		.ascii	"uint_fast64_t\000"
 1661      5F666173 
 1661      7436345F 
 1661      7400
 1662              	.LASF36:
 1663 0104 696E7436 		.ascii	"int64_t\000"
 1663      345F7400 
 1664              	.LASF80:
 1665 010c 76616C75 		.ascii	"value\000"
 1665      6500
 1666              	.LASF65:
 1667 0112 6B5F7573 		.ascii	"k_user_module_revfx\000"
 1667      65725F6D 
 1667      6F64756C 
 1667      655F7265 
 1667      76667800 
 1668              	.LASF67:
 1669 0126 6B5F6E75 		.ascii	"k_num_user_modules\000"
 1669      6D5F7573 
 1669      65725F6D 
 1669      6F64756C 
 1669      657300
 1670              	.LASF79:
 1671 0139 696E6465 		.ascii	"index\000"
 1671      7800
 1672              	.LASF28:
 1673 013f 5F5F696E 		.ascii	"__intptr_t\000"
 1673      74707472 
 1673      5F7400
 1674              	.LASF98:
 1675 014a 73657454 		.ascii	"setTime\000"
 1675      696D6500 
 1676              	.LASF39:
 1677 0152 75696E74 		.ascii	"uintptr_t\000"
 1677      7074725F 
 1677      7400
 1678              	.LASF46:
 1679 015c 696E745F 		.ascii	"int_least64_t\000"
 1679      6C656173 
 1679      7436345F 
 1679      7400
 1680              	.LASF94:
 1681 016a 2F557365 		.ascii	"/Users/connorbarker/Documents/logue-projects/stdfx\000"
 1681      72732F63 
 1681      6F6E6E6F 
 1681      72626172 
 1681      6B65722F 
 1682              	.LASF77:
 1683 019d 6D61696E 		.ascii	"main_xn\000"
 1683      5F786E00 
 1684              	.LASF41:
 1685 01a5 75696E74 		.ascii	"uint_least8_t\000"
 1685      5F6C6561 
 1685      7374385F 
 1685      7400
 1686              	.LASF4:
ARM GAS  /var/folders/lp/91fb3m410_x3145lb4m2f_fh0000gn/T//ccDMlR3y.s 			page 32


 1687 01b3 7369676E 		.ascii	"signed char\000"
 1687      65642063 
 1687      68617200 
 1688              	.LASF26:
 1689 01bf 5F5F696E 		.ascii	"__int_least64_t\000"
 1689      745F6C65 
 1689      61737436 
 1689      345F7400 
 1690              	.LASF102:
 1691 01cf 5F5A3131 		.ascii	"_Z11_hook_paramhm\000"
 1691      5F686F6F 
 1691      6B5F7061 
 1691      72616D68 
 1691      6D00
 1692              	.LASF89:
 1693 01e1 73636865 		.ascii	"schetzen_lut_f\000"
 1693      747A656E 
 1693      5F6C7574 
 1693      5F6600
 1694              	.LASF101:
 1695 01f0 5F686F6F 		.ascii	"_hook_param\000"
 1695      6B5F7061 
 1695      72616D00 
 1696              	.LASF17:
 1697 01fc 6C6F6E67 		.ascii	"long long int\000"
 1697      206C6F6E 
 1697      6720696E 
 1697      7400
 1698              	.LASF13:
 1699 020a 6C6F6E67 		.ascii	"long int\000"
 1699      20696E74 
 1699      00
 1700              	.LASF16:
 1701 0213 5F5F696E 		.ascii	"__int64_t\000"
 1701      7436345F 
 1701      7400
 1702              	.LASF23:
 1703 021d 5F5F7569 		.ascii	"__uint_least16_t\000"
 1703      6E745F6C 
 1703      65617374 
 1703      31365F74 
 1703      00
 1704              	.LASF48:
 1705 022e 696E745F 		.ascii	"int_fast8_t\000"
 1705      66617374 
 1705      385F7400 
 1706              	.LASF6:
 1707 023a 5F5F7569 		.ascii	"__uint8_t\000"
 1707      6E74385F 
 1707      7400
 1708              	.LASF84:
 1709 0244 6C6F675F 		.ascii	"log_lut_f\000"
 1709      6C75745F 
 1709      6600
 1710              	.LASF81:
 1711 024e 6B5F6678 		.ascii	"k_fx_api_platform\000"
 1711      5F617069 
ARM GAS  /var/folders/lp/91fb3m410_x3145lb4m2f_fh0000gn/T//ccDMlR3y.s 			page 33


 1711      5F706C61 
 1711      74666F72 
 1711      6D00
 1712              	.LASF56:
 1713 0260 696E746D 		.ascii	"intmax_t\000"
 1713      61785F74 
 1713      00
 1714              	.LASF76:
 1715 0269 5F686F6F 		.ascii	"_hook_process\000"
 1715      6B5F7072 
 1715      6F636573 
 1715      7300
 1716              	.LASF58:
 1717 0277 6C6F6E67 		.ascii	"long double\000"
 1717      20646F75 
 1717      626C6500 
 1718              	.LASF27:
 1719 0283 5F5F7569 		.ascii	"__uint_least64_t\000"
 1719      6E745F6C 
 1719      65617374 
 1719      36345F74 
 1719      00
 1720              	.LASF7:
 1721 0294 756E7369 		.ascii	"unsigned char\000"
 1721      676E6564 
 1721      20636861 
 1721      7200
 1722              	.LASF44:
 1723 02a2 696E745F 		.ascii	"int_least32_t\000"
 1723      6C656173 
 1723      7433325F 
 1723      7400
 1724              	.LASF2:
 1725 02b0 5F5F676E 		.ascii	"__gnu_cxx\000"
 1725      755F6378 
 1725      7800
 1726              	.LASF92:
 1727 02ba 474E5520 		.ascii	"GNU C++11 5.4.1 20160919 (release) [ARM/embedded-5-"
 1727      432B2B31 
 1727      3120352E 
 1727      342E3120 
 1727      32303136 
 1728 02ed 6272616E 		.ascii	"branch revision 240496] -mcpu=cortex-m4 -mthumb -mn"
 1728      63682072 
 1728      65766973 
 1728      696F6E20 
 1728      32343034 
 1729 0320 6F2D7468 		.ascii	"o-thumb-interwork -mlittle-endian -mfloat-abi=hard "
 1729      756D622D 
 1729      696E7465 
 1729      72776F72 
 1729      6B202D6D 
 1730 0353 2D6D6670 		.ascii	"-mfpu=fpv4-sp-d16 -g -Os -std=c++11 -fsingle-precis"
 1730      753D6670 
 1730      76342D73 
 1730      702D6431 
 1730      36202D67 
ARM GAS  /var/folders/lp/91fb3m410_x3145lb4m2f_fh0000gn/T//ccDMlR3y.s 			page 34


 1731 0386 696F6E2D 		.ascii	"ion-constant -fcheck-new -fno-rtti -fno-exceptions "
 1731      636F6E73 
 1731      74616E74 
 1731      202D6663 
 1731      6865636B 
 1732 03b9 2D666E6F 		.ascii	"-fno-non-call-exceptions\000"
 1732      2D6E6F6E 
 1732      2D63616C 
 1732      6C2D6578 
 1732      63657074 
 1733              	.LASF62:
 1734 03d2 6B5F7573 		.ascii	"k_user_module_global\000"
 1734      65725F6D 
 1734      6F64756C 
 1734      655F676C 
 1734      6F62616C 
 1735              	.LASF19:
 1736 03e7 6C6F6E67 		.ascii	"long long unsigned int\000"
 1736      206C6F6E 
 1736      6720756E 
 1736      7369676E 
 1736      65642069 
 1737              	.LASF49:
 1738 03fe 75696E74 		.ascii	"uint_fast8_t\000"
 1738      5F666173 
 1738      74385F74 
 1738      00
 1739              	.LASF35:
 1740 040b 75696E74 		.ascii	"uint32_t\000"
 1740      33325F74 
 1740      00
 1741              	.LASF45:
 1742 0414 75696E74 		.ascii	"uint_least32_t\000"
 1742      5F6C6561 
 1742      73743332 
 1742      5F7400
 1743              	.LASF0:
 1744 0423 756E7369 		.ascii	"unsigned int\000"
 1744      676E6564 
 1744      20696E74 
 1744      00
 1745              	.LASF33:
 1746 0430 75696E74 		.ascii	"uint16_t\000"
 1746      31365F74 
 1746      00
 1747              	.LASF15:
 1748 0439 6C6F6E67 		.ascii	"long unsigned int\000"
 1748      20756E73 
 1748      69676E65 
 1748      6420696E 
 1748      7400
 1749              	.LASF52:
 1750 044b 696E745F 		.ascii	"int_fast32_t\000"
 1750      66617374 
 1750      33325F74 
 1750      00
 1751              	.LASF57:
ARM GAS  /var/folders/lp/91fb3m410_x3145lb4m2f_fh0000gn/T//ccDMlR3y.s 			page 35


 1752 0458 75696E74 		.ascii	"uintmax_t\000"
 1752      6D61785F 
 1752      7400
 1753              	.LASF50:
 1754 0462 696E745F 		.ascii	"int_fast16_t\000"
 1754      66617374 
 1754      31365F74 
 1754      00
 1755              	.LASF103:
 1756 046f 5F5A3134 		.ascii	"_Z14generateReverbv\000"
 1756      67656E65 
 1756      72617465 
 1756      52657665 
 1756      72627600 
 1757              	.LASF83:
 1758 0483 77745F73 		.ascii	"wt_sine_lut_f\000"
 1758      696E655F 
 1758      6C75745F 
 1758      6600
 1759              	.LASF5:
 1760 0491 5F5F696E 		.ascii	"__int8_t\000"
 1760      74385F74 
 1760      00
 1761              	.LASF60:
 1762 049a 63686172 		.ascii	"char\000"
 1762      00
 1763              	.LASF63:
 1764 049f 6B5F7573 		.ascii	"k_user_module_modfx\000"
 1764      65725F6D 
 1764      6F64756C 
 1764      655F6D6F 
 1764      64667800 
 1765              	.LASF53:
 1766 04b3 75696E74 		.ascii	"uint_fast32_t\000"
 1766      5F666173 
 1766      7433325F 
 1766      7400
 1767              	.LASF34:
 1768 04c1 696E7433 		.ascii	"int32_t\000"
 1768      325F7400 
 1769              	.LASF69:
 1770 04c9 6B5F7573 		.ascii	"k_user_revfx_param_depth\000"
 1770      65725F72 
 1770      65766678 
 1770      5F706172 
 1770      616D5F64 
 1771              	.LASF43:
 1772 04e2 75696E74 		.ascii	"uint_least16_t\000"
 1772      5F6C6561 
 1772      73743136 
 1772      5F7400
 1773              	.LASF51:
 1774 04f1 75696E74 		.ascii	"uint_fast16_t\000"
 1774      5F666173 
 1774      7431365F 
 1774      7400
 1775              	.LASF70:
ARM GAS  /var/folders/lp/91fb3m410_x3145lb4m2f_fh0000gn/T//ccDMlR3y.s 			page 36


 1776 04ff 6B5F7573 		.ascii	"k_user_revfx_param_reserved0\000"
 1776      65725F72 
 1776      65766678 
 1776      5F706172 
 1776      616D5F72 
 1777              	.LASF32:
 1778 051c 696E7431 		.ascii	"int16_t\000"
 1778      365F7400 
 1779              	.LASF100:
 1780 0524 74686973 		.ascii	"this\000"
 1780      00
 1781              	.LASF85:
 1782 0529 74616E70 		.ascii	"tanpi_lut_f\000"
 1782      695F6C75 
 1782      745F6600 
 1783              	.LASF93:
 1784 0535 72657665 		.ascii	"reverb_fx_main.cpp\000"
 1784      72625F66 
 1784      785F6D61 
 1784      696E2E63 
 1784      707000
 1785              	.LASF40:
 1786 0548 696E745F 		.ascii	"int_least8_t\000"
 1786      6C656173 
 1786      74385F74 
 1786      00
 1787              	.LASF74:
 1788 0555 706C6174 		.ascii	"platform\000"
 1788      666F726D 
 1788      00
 1789              	.LASF42:
 1790 055e 696E745F 		.ascii	"int_least16_t\000"
 1790      6C656173 
 1790      7431365F 
 1790      7400
 1791              	.LASF24:
 1792 056c 5F5F696E 		.ascii	"__int_least32_t\000"
 1792      745F6C65 
 1792      61737433 
 1792      325F7400 
 1793              	.LASF29:
 1794 057c 5F5F7569 		.ascii	"__uintptr_t\000"
 1794      6E747074 
 1794      725F7400 
 1795              	.LASF22:
 1796 0588 5F5F696E 		.ascii	"__int_least16_t\000"
 1796      745F6C65 
 1796      61737431 
 1796      365F7400 
 1797              	.LASF87:
 1798 0598 706F7732 		.ascii	"pow2_lut_f\000"
 1798      5F6C7574 
 1798      5F6600
 1799              	.LASF11:
 1800 05a3 73686F72 		.ascii	"short unsigned int\000"
 1800      7420756E 
 1800      7369676E 
ARM GAS  /var/folders/lp/91fb3m410_x3145lb4m2f_fh0000gn/T//ccDMlR3y.s 			page 37


 1800      65642069 
 1800      6E7400
 1801              	.LASF66:
 1802 05b6 6B5F7573 		.ascii	"k_user_module_osc\000"
 1802      65725F6D 
 1802      6F64756C 
 1802      655F6F73 
 1802      6300
 1803              	.LASF12:
 1804 05c8 5F5F696E 		.ascii	"__int32_t\000"
 1804      7433325F 
 1804      7400
 1805              	.LASF96:
 1806 05d2 32317573 		.ascii	"21user_revfx_param_id_t\000"
 1806      65725F72 
 1806      65766678 
 1806      5F706172 
 1806      616D5F69 
 1807              	.LASF31:
 1808 05ea 75696E74 		.ascii	"uint8_t\000"
 1808      385F7400 
 1809              	.LASF59:
 1810 05f2 73697A65 		.ascii	"sizetype\000"
 1810      74797065 
 1810      00
 1811              	.LASF86:
 1812 05fb 73717274 		.ascii	"sqrtm2log_lut_f\000"
 1812      6D326C6F 
 1812      675F6C75 
 1812      745F6600 
 1813              	.LASF91:
 1814 060b 76657262 		.ascii	"verb\000"
 1814      00
 1815              	.LASF104:
 1816 0610 67656E65 		.ascii	"generateReverb\000"
 1816      72617465 
 1816      52657665 
 1816      726200
 1817              	.LASF61:
 1818 061f 646F7562 		.ascii	"double\000"
 1818      6C6500
 1819              	.LASF99:
 1820 0626 5F5A4E36 		.ascii	"_ZN6Reverb7setTimeEf\000"
 1820      52657665 
 1820      72623773 
 1820      65745469 
 1820      6D654566 
 1821              	.LASF71:
 1822 063b 6B5F7573 		.ascii	"k_user_revfx_param_shift_depth\000"
 1822      65725F72 
 1822      65766678 
 1822      5F706172 
 1822      616D5F73 
 1823              	.LASF82:
 1824 065a 6B5F6678 		.ascii	"k_fx_api_version\000"
 1824      5F617069 
 1824      5F766572 
ARM GAS  /var/folders/lp/91fb3m410_x3145lb4m2f_fh0000gn/T//ccDMlR3y.s 			page 38


 1824      73696F6E 
 1824      00
 1825              	.LASF25:
 1826 066b 5F5F7569 		.ascii	"__uint_least32_t\000"
 1826      6E745F6C 
 1826      65617374 
 1826      33325F74 
 1826      00
 1827              	.LASF72:
 1828 067c 6B5F6E75 		.ascii	"k_num_user_revfx_param_id\000"
 1828      6D5F7573 
 1828      65725F72 
 1828      65766678 
 1828      5F706172 
 1829              	.LASF64:
 1830 0696 6B5F7573 		.ascii	"k_user_module_delfx\000"
 1830      65725F6D 
 1830      6F64756C 
 1830      655F6465 
 1830      6C667800 
 1831              	.LASF73:
 1832 06aa 75736572 		.ascii	"user_revfx_param_id_t\000"
 1832      5F726576 
 1832      66785F70 
 1832      6172616D 
 1832      5F69645F 
 1833              		.ident	"GCC: (GNU Tools for ARM Embedded Processors) 5.4.1 20160919 (release) [ARM/embedded-5-bran
ARM GAS  /var/folders/lp/91fb3m410_x3145lb4m2f_fh0000gn/T//ccDMlR3y.s 			page 39


DEFINED SYMBOLS
                            *ABS*:0000000000000000 reverb_fx_main.cpp
/var/folders/lp/91fb3m410_x3145lb4m2f_fh0000gn/T//ccDMlR3y.s:21     .text:0000000000000000 $t
/var/folders/lp/91fb3m410_x3145lb4m2f_fh0000gn/T//ccDMlR3y.s:26     .text:0000000000000000 _hook_init
/var/folders/lp/91fb3m410_x3145lb4m2f_fh0000gn/T//ccDMlR3y.s:47     .text:000000000000000c $d
/var/folders/lp/91fb3m410_x3145lb4m2f_fh0000gn/T//ccDMlR3y.s:51     .text:0000000000000010 $t
/var/folders/lp/91fb3m410_x3145lb4m2f_fh0000gn/T//ccDMlR3y.s:56     .text:0000000000000010 _hook_process
/var/folders/lp/91fb3m410_x3145lb4m2f_fh0000gn/T//ccDMlR3y.s:90     .text:0000000000000028 $d
/var/folders/lp/91fb3m410_x3145lb4m2f_fh0000gn/T//ccDMlR3y.s:94     .text:000000000000002c $t
/var/folders/lp/91fb3m410_x3145lb4m2f_fh0000gn/T//ccDMlR3y.s:99     .text:000000000000002c _Z11_hook_paramhm
/var/folders/lp/91fb3m410_x3145lb4m2f_fh0000gn/T//ccDMlR3y.s:157    .text:0000000000000068 $d
/var/folders/lp/91fb3m410_x3145lb4m2f_fh0000gn/T//ccDMlR3y.s:167    .bss:0000000000000000 verb
/var/folders/lp/91fb3m410_x3145lb4m2f_fh0000gn/T//ccDMlR3y.s:163    .bss:0000000000000000 $d
                     .debug_frame:0000000000000010 $d

UNDEFINED SYMBOLS
_Z14generateReverbv
