ARM GAS  /var/folders/lp/91fb3m410_x3145lb4m2f_fh0000gn/T//ccUB3Dvk.s 			page 1


   1              		.syntax unified
   2              		.cpu cortex-m4
   3              		.eabi_attribute 27, 1
   4              		.eabi_attribute 28, 1
   5              		.fpu fpv4-sp-d16
   6              		.eabi_attribute 20, 1
   7              		.eabi_attribute 21, 1
   8              		.eabi_attribute 23, 3
   9              		.eabi_attribute 24, 1
  10              		.eabi_attribute 25, 1
  11              		.eabi_attribute 26, 1
  12              		.eabi_attribute 30, 4
  13              		.eabi_attribute 34, 1
  14              		.eabi_attribute 18, 4
  15              		.thumb
  16              		.syntax unified
  17              		.file	"reverb_fx_main.cpp"
  18              		.text
  19              	.Ltext0:
  20              		.cfi_sections	.debug_frame
  21              		.section	.text._ZNSt10unique_ptrI6ReverbSt14default_deleteIS0_EED2Ev,"axG",%progbits,_ZNSt10unique
  22              		.align	1
  23              		.weak	_ZNSt10unique_ptrI6ReverbSt14default_deleteIS0_EED2Ev
  24              		.thumb
  25              		.thumb_func
  26              		.type	_ZNSt10unique_ptrI6ReverbSt14default_deleteIS0_EED2Ev, %function
  27              	_ZNSt10unique_ptrI6ReverbSt14default_deleteIS0_EED2Ev:
  28              	.LFB1955:
  29              		.file 1 "/Users/connorbarker/Documents/logue-projects/logue-sdk/tools/gcc/gcc-arm-none-eabi-5_4-20
  30              		.loc 1 232 0
  31              		.cfi_startproc
  32              		@ args = 0, pretend = 0, frame = 0
  33              		@ frame_needed = 0, uses_anonymous_args = 0
  34              	.LVL0:
  35 0000 10B5     		push	{r4, lr}
  36              		.cfi_def_cfa_offset 8
  37              		.cfi_offset 4, -8
  38              		.cfi_offset 14, -4
  39              		.loc 1 232 0
  40 0002 0446     		mov	r4, r0
  41              	.LBB106:
  42              		.loc 1 235 0
  43 0004 0068     		ldr	r0, [r0]
  44              	.LVL1:
  45 0006 08B1     		cbz	r0, .L2
  46              	.LVL2:
  47              	.LBB107:
  48              	.LBB108:
  49              		.loc 1 76 0
  50 0008 FFF7FEFF 		bl	_ZdlPv
  51              	.LVL3:
  52              	.L2:
  53              	.LBE108:
  54              	.LBE107:
  55              	.LBE106:
  56              		.loc 1 238 0
  57 000c 2046     		mov	r0, r4
ARM GAS  /var/folders/lp/91fb3m410_x3145lb4m2f_fh0000gn/T//ccUB3Dvk.s 			page 2


  58 000e 10BD     		pop	{r4, pc}
  59              		.cfi_endproc
  60              	.LFE1955:
  61              		.size	_ZNSt10unique_ptrI6ReverbSt14default_deleteIS0_EED2Ev, .-_ZNSt10unique_ptrI6ReverbSt14defaul
  62              		.weak	_ZNSt10unique_ptrI6ReverbSt14default_deleteIS0_EED1Ev
  63              		.thumb_set _ZNSt10unique_ptrI6ReverbSt14default_deleteIS0_EED1Ev,_ZNSt10unique_ptrI6ReverbSt14defa
  64              		.text
  65              		.align	1
  66              		.global	_hook_init
  67              		.thumb
  68              		.thumb_func
  69              		.type	_hook_init, %function
  70              	_hook_init:
  71              	.LFB1935:
  72              		.file 2 "reverb_fx_main.cpp"
  73              		.loc 2 9 0
  74              		.cfi_startproc
  75              		@ args = 0, pretend = 0, frame = 8
  76              		@ frame_needed = 0, uses_anonymous_args = 0
  77              	.LVL4:
  78 0000 07B5     		push	{r0, r1, r2, lr}
  79              		.cfi_def_cfa_offset 16
  80              		.cfi_offset 14, -4
  81              		.loc 2 10 0
  82 0002 01A8     		add	r0, sp, #4
  83              	.LVL5:
  84 0004 FFF7FEFF 		bl	_Z14generateReverbv
  85              	.LVL6:
  86              	.LBB121:
  87              	.LBB122:
  88              	.LBB123:
  89              		.loc 1 328 0
  90 0008 0023     		movs	r3, #0
  91              	.LBB124:
  92              	.LBB125:
  93              		.loc 1 305 0
  94 000a 019A     		ldr	r2, [sp, #4]
  95              	.LVL7:
  96              	.LBE125:
  97              	.LBE124:
  98              		.loc 1 328 0
  99 000c 0193     		str	r3, [sp, #4]
 100              	.LVL8:
 101              	.LBE123:
 102              	.LBE122:
 103              	.LBB126:
 104              	.LBB127:
 105              	.LBB128:
 106              	.LBB129:
 107              		.file 3 "/Users/connorbarker/Documents/logue-projects/logue-sdk/tools/gcc/gcc-arm-none-eabi-5_4-20
 108              		.loc 3 185 0
 109 000e 064B     		ldr	r3, .L12
 110 0010 1868     		ldr	r0, [r3]
 111              	.LVL9:
 112              		.loc 3 186 0
 113 0012 1A60     		str	r2, [r3]
 114              	.LVL10:
ARM GAS  /var/folders/lp/91fb3m410_x3145lb4m2f_fh0000gn/T//ccUB3Dvk.s 			page 3


 115              	.LBE129:
 116              	.LBE128:
 117              		.loc 1 343 0
 118 0014 08B1     		cbz	r0, .L8
 119              	.LVL11:
 120              	.LBB130:
 121              	.LBB131:
 122              		.loc 1 76 0
 123 0016 FFF7FEFF 		bl	_ZdlPv
 124              	.LVL12:
 125              	.L8:
 126              	.LBE131:
 127              	.LBE130:
 128              	.LBE127:
 129              	.LBE126:
 130              	.LBE121:
 131              		.loc 2 10 0
 132 001a 01A8     		add	r0, sp, #4
 133 001c FFF7FEFF 		bl	_ZNSt10unique_ptrI6ReverbSt14default_deleteIS0_EED1Ev
 134              	.LVL13:
 135              		.loc 2 11 0
 136 0020 03B0     		add	sp, sp, #12
 137              		.cfi_def_cfa_offset 4
 138              		@ sp needed
 139 0022 5DF804FB 		ldr	pc, [sp], #4
 140              	.L13:
 141 0026 00BF     		.align	2
 142              	.L12:
 143 0028 00000000 		.word	.LANCHOR0
 144              		.cfi_endproc
 145              	.LFE1935:
 146              		.size	_hook_init, .-_hook_init
 147              		.align	1
 148              		.global	_hook_process
 149              		.thumb
 150              		.thumb_func
 151              		.type	_hook_process, %function
 152              	_hook_process:
 153              	.LFB1936:
 154              		.loc 2 14 0
 155              		.cfi_startproc
 156              		@ args = 0, pretend = 0, frame = 0
 157              		@ frame_needed = 0, uses_anonymous_args = 0
 158              		@ link register save eliminated.
 159              	.LVL14:
 160              	.LBB132:
 161              	.LBB133:
 162              	.LBB134:
 163              		.loc 1 305 0
 164 002c 054B     		ldr	r3, .L15
 165 002e 1B68     		ldr	r3, [r3]
 166              	.LVL15:
 167              	.LBE134:
 168              	.LBE133:
 169              	.LBE132:
 170              		.loc 2 15 0
 171 0030 1A68     		ldr	r2, [r3]
ARM GAS  /var/folders/lp/91fb3m410_x3145lb4m2f_fh0000gn/T//ccUB3Dvk.s 			page 4


 172              		.loc 2 14 0
 173 0032 10B4     		push	{r4}
 174              		.cfi_def_cfa_offset 4
 175              		.cfi_offset 4, -4
 176              		.loc 2 15 0
 177 0034 1468     		ldr	r4, [r2]
 178 0036 0A46     		mov	r2, r1
 179 0038 0146     		mov	r1, r0
 180              	.LVL16:
 181 003a 1846     		mov	r0, r3
 182              	.LVL17:
 183 003c 2346     		mov	r3, r4
 184              		.loc 2 16 0
 185 003e 5DF8044B 		ldr	r4, [sp], #4
 186              		.cfi_restore 4
 187              		.cfi_def_cfa_offset 0
 188              		.loc 2 15 0
 189 0042 1847     		bx	r3	@ indirect register sibling call
 190              	.LVL18:
 191              	.L16:
 192              		.align	2
 193              	.L15:
 194 0044 00000000 		.word	.LANCHOR0
 195              		.cfi_endproc
 196              	.LFE1936:
 197              		.size	_hook_process, .-_hook_process
 198              		.align	1
 199              		.global	_Z11_hook_paramhm
 200              		.thumb
 201              		.thumb_func
 202              		.type	_Z11_hook_paramhm, %function
 203              	_Z11_hook_paramhm:
 204              	.LFB1937:
 205              		.loc 2 18 0
 206              		.cfi_startproc
 207              		@ args = 0, pretend = 0, frame = 0
 208              		@ frame_needed = 0, uses_anonymous_args = 0
 209              		@ link register save eliminated.
 210              	.LVL19:
 211              		.loc 2 18 0
 212 0048 00EE101A 		vmov	s0, r1	@ int
 213              		.loc 2 20 0
 214 004c 30B9     		cbnz	r0, .L18
 215              	.LVL20:
 216              	.LBB135:
 217              	.LBB136:
 218              	.LBB137:
 219              		.loc 1 305 0
 220 004e 0D4B     		ldr	r3, .L21
 221              	.LBE137:
 222              	.LBE136:
 223              	.LBE135:
 224              	.LBB138:
 225              	.LBB139:
 226              		.file 4 "./include/Reverb.h"
 227              		.loc 4 21 0
 228 0050 B8EE400A 		vcvt.f32.u32	s0, s0
ARM GAS  /var/folders/lp/91fb3m410_x3145lb4m2f_fh0000gn/T//ccUB3Dvk.s 			page 5


 229              	.LVL21:
 230 0054 1B68     		ldr	r3, [r3]
 231 0056 83ED020A 		vstr.32	s0, [r3, #8]
 232 005a 7047     		bx	lr
 233              	.LVL22:
 234              	.L18:
 235              	.LBE139:
 236              	.LBE138:
 237              		.loc 2 24 0
 238 005c 0128     		cmp	r0, #1
 239 005e 06D1     		bne	.L20
 240              	.LVL23:
 241              	.LBB140:
 242              	.LBB141:
 243              	.LBB142:
 244              		.loc 1 305 0
 245 0060 084B     		ldr	r3, .L21
 246 0062 1868     		ldr	r0, [r3]
 247              	.LVL24:
 248              	.LBE142:
 249              	.LBE141:
 250              	.LBE140:
 251              		.loc 2 25 0
 252 0064 0368     		ldr	r3, [r0]
 253 0066 B8EE400A 		vcvt.f32.u32	s0, s0
 254 006a 5B68     		ldr	r3, [r3, #4]
 255 006c 1847     		bx	r3	@ indirect register sibling call
 256              	.LVL25:
 257              	.L20:
 258              		.loc 2 28 0
 259 006e 0328     		cmp	r0, #3
 260 0070 06D1     		bne	.L17
 261              	.LVL26:
 262              	.LBB143:
 263              	.LBB144:
 264              	.LBB145:
 265              		.loc 1 305 0
 266 0072 044B     		ldr	r3, .L21
 267 0074 1868     		ldr	r0, [r3]
 268              	.LVL27:
 269              	.LBE145:
 270              	.LBE144:
 271              	.LBE143:
 272              		.loc 2 29 0
 273 0076 0368     		ldr	r3, [r0]
 274 0078 B8EE400A 		vcvt.f32.u32	s0, s0
 275 007c 9B68     		ldr	r3, [r3, #8]
 276 007e 1847     		bx	r3	@ indirect register sibling call
 277              	.LVL28:
 278              	.L17:
 279 0080 7047     		bx	lr
 280              	.L22:
 281 0082 00BF     		.align	2
 282              	.L21:
 283 0084 00000000 		.word	.LANCHOR0
 284              		.cfi_endproc
 285              	.LFE1937:
ARM GAS  /var/folders/lp/91fb3m410_x3145lb4m2f_fh0000gn/T//ccUB3Dvk.s 			page 6


 286              		.size	_Z11_hook_paramhm, .-_Z11_hook_paramhm
 287              		.section	.text.startup,"ax",%progbits
 288              		.align	1
 289              		.thumb
 290              		.thumb_func
 291              		.type	_GLOBAL__sub_I_verb, %function
 292              	_GLOBAL__sub_I_verb:
 293              	.LFB1984:
 294              		.loc 2 31 0
 295              		.cfi_startproc
 296              		@ args = 0, pretend = 0, frame = 0
 297              		@ frame_needed = 0, uses_anonymous_args = 0
 298              		@ link register save eliminated.
 299              	.LVL29:
 300              	.LBB148:
 301              	.LBB149:
 302              		.loc 2 7 0
 303 0000 024A     		ldr	r2, .L24
 304 0002 0349     		ldr	r1, .L24+4
 305 0004 0348     		ldr	r0, .L24+8
 306 0006 FFF7FEBF 		b	__aeabi_atexit
 307              	.LVL30:
 308              	.L25:
 309 000a 00BF     		.align	2
 310              	.L24:
 311 000c 00000000 		.word	__dso_handle
 312 0010 00000000 		.word	_ZNSt10unique_ptrI6ReverbSt14default_deleteIS0_EED1Ev
 313 0014 00000000 		.word	.LANCHOR0
 314              	.LBE149:
 315              	.LBE148:
 316              		.cfi_endproc
 317              	.LFE1984:
 318              		.size	_GLOBAL__sub_I_verb, .-_GLOBAL__sub_I_verb
 319              		.section	.init_array,"aw",%init_array
 320              		.align	2
 321 0000 00000000 		.word	_GLOBAL__sub_I_verb(target1)
 322              		.global	verb
 323              		.bss
 324              		.align	2
 325              		.set	.LANCHOR0,. + 0
 326              		.type	verb, %object
 327              		.size	verb, 4
 328              	verb:
 329 0000 00000000 		.space	4
 330              		.text
 331              	.Letext0:
 332              		.file 5 "/Users/connorbarker/Documents/logue-projects/logue-sdk/tools/gcc/gcc-arm-none-eabi-5_4-20
 333              		.file 6 "/Users/connorbarker/Documents/logue-projects/logue-sdk/tools/gcc/gcc-arm-none-eabi-5_4-20
 334              		.file 7 "/Users/connorbarker/Documents/logue-projects/logue-sdk/tools/gcc/gcc-arm-none-eabi-5_4-20
 335              		.file 8 "/Users/connorbarker/Documents/logue-projects/logue-sdk/tools/gcc/gcc-arm-none-eabi-5_4-20
 336              		.file 9 "/Users/connorbarker/Documents/logue-projects/logue-sdk/tools/gcc/gcc-arm-none-eabi-5_4-20
 337              		.file 10 "/Users/connorbarker/Documents/logue-projects/logue-sdk/tools/gcc/gcc-arm-none-eabi-5_4-2
 338              		.file 11 "/Users/connorbarker/Documents/logue-projects/logue-sdk/tools/gcc/gcc-arm-none-eabi-5_4-2
 339              		.file 12 "/Users/connorbarker/Documents/logue-projects/logue-sdk/tools/gcc/gcc-arm-none-eabi-5_4-2
 340              		.file 13 "/Users/connorbarker/Documents/logue-projects/logue-sdk/tools/gcc/gcc-arm-none-eabi-5_4-2
 341              		.file 14 "/Users/connorbarker/Documents/logue-projects/logue-sdk/tools/gcc/gcc-arm-none-eabi-5_4-2
 342              		.file 15 "/Users/connorbarker/Documents/logue-projects/logue-sdk/tools/gcc/gcc-arm-none-eabi-5_4-2
ARM GAS  /var/folders/lp/91fb3m410_x3145lb4m2f_fh0000gn/T//ccUB3Dvk.s 			page 7


 343              		.file 16 "/Users/connorbarker/Documents/logue-projects/logue-sdk/tools/gcc/gcc-arm-none-eabi-5_4-2
 344              		.file 17 "/Users/connorbarker/Documents/logue-projects/logue-sdk/tools/gcc/gcc-arm-none-eabi-5_4-2
 345              		.file 18 "/Users/connorbarker/Documents/logue-projects/logue-sdk/tools/gcc/gcc-arm-none-eabi-5_4-2
 346              		.file 19 "/Users/connorbarker/Documents/logue-projects/logue-sdk/tools/gcc/gcc-arm-none-eabi-5_4-2
 347              		.file 20 "/Users/connorbarker/Documents/logue-projects/logue-sdk/tools/gcc/gcc-arm-none-eabi-5_4-2
 348              		.file 21 "/Users/connorbarker/Documents/logue-projects/logue-sdk/tools/gcc/gcc-arm-none-eabi-5_4-2
 349              		.file 22 "/Users/connorbarker/Documents/logue-projects/logue-sdk/tools/gcc/gcc-arm-none-eabi-5_4-2
 350              		.file 23 "/Users/connorbarker/Documents/logue-projects/logue-sdk/tools/gcc/gcc-arm-none-eabi-5_4-2
 351              		.file 24 "/Users/connorbarker/Documents/logue-projects/logue-sdk/tools/gcc/gcc-arm-none-eabi-5_4-2
 352              		.file 25 "/Users/connorbarker/Documents/logue-projects/logue-sdk/tools/gcc/gcc-arm-none-eabi-5_4-2
 353              		.file 26 "/Users/connorbarker/Documents/logue-projects/logue-sdk/tools/gcc/gcc-arm-none-eabi-5_4-2
 354              		.file 27 "/Users/connorbarker/Documents/logue-projects/logue-sdk/tools/gcc/gcc-arm-none-eabi-5_4-2
 355              		.file 28 "/Users/connorbarker/Documents/logue-projects/logue-sdk/tools/gcc/gcc-arm-none-eabi-5_4-2
 356              		.file 29 "<built-in>"
 357              		.file 30 "/Users/connorbarker/Documents/logue-projects/logue-sdk/tools/gcc/gcc-arm-none-eabi-5_4-2
 358              		.file 31 "/Users/connorbarker/Documents/logue-projects/logue-sdk/tools/gcc/gcc-arm-none-eabi-5_4-2
 359              		.file 32 "../logue-sdk/platform/minilogue-xd/inc/userrevfx.h"
 360              		.file 33 "../logue-sdk/platform/minilogue-xd/inc/fx_api.h"
 361              		.file 34 "reverb_fx_main.h"